(dp0
I3
I0
sI4
I1
sI5
I2
sI6
I3
sI7
I4
sI8
I5
sI9
I6
sI10
I7
sI11
I8
sI12
I9
sI13
I10
sI14
I11
sI15
I12
sI16
I13
sI17
I14
sI18
I15
sI19
I16
sI20
I17
sI21
I18
sI22
I19
sI23
I20
sI24
I21
sI25
I22
sI26
I23
sI27
I24
sI28
I25
sI29
I26
sI30
I27
sI31
I28
sI32
I29
sI33
I30
sI34
I31
sI35
I32
sI36
I33
sI37
I34
sI38
I35
sI39
I36
sI40
I37
sI41
I38
sI42
I39
sI43
I40
sI44
I41
sI45
I42
sI46
I43
sI47
I44
sI48
I45
sI49
I46
sI50
I47
sI51
I48
sI52
I49
sI53
I50
sI54
I51
sI55
I52
sI56
I53
sI57
I54
sI58
I55
sI59
I56
sI60
I57
sI61
I58
sI62
I59
sI63
I60
sI64
I61
sI65
I62
sI66
I63
sI67
I64
sI68
I65
sI71
I66
sI72
I67
sI73
I68
sI74
I69
sI75
I70
sI76
I71
sI77
I72
sI78
I73
sI79
I74
sI80
I75
sI81
I76
sI82
I77
sI83
I78
sI84
I79
sI85
I80
sI86
I81
sI87
I82
sI88
I83
sI89
I84
sI90
I85
sI91
I86
sI92
I87
sI93
I88
sI94
I89
sI95
I90
sI96
I91
sI98
I92
sI99
I93
sI100
I94
sI101
I95
sI102
I96
sI103
I97
sI104
I98
sI105
I99
sI106
I100
sI107
I101
sI108
I102
sI109
I103
sI110
I104
sI111
I105
sI112
I106
sI113
I107
sI114
I108
sI115
I109
sI116
I110
sI117
I111
sI118
I112
sI119
I113
sI120
I114
sI121
I115
sI122
I116
sI123
I117
sI124
I118
sI125
I119
sI126
I120
sI127
I121
sI128
I122
sI129
I123
sI130
I124
sI132
I125
sI133
I126
sI134
I127
sI135
I128
sI136
I129
sI137
I130
sI138
I131
sI139
I132
sI140
I133
sI141
I134
sI142
I135
sI143
I136
sI144
I137
sI145
I138
sI146
I139
sI147
I140
sI149
I141
sI150
I142
sI151
I143
sI152
I144
sI153
I145
sI154
I146
sI155
I147
sI156
I148
sI157
I149
sI158
I150
sI159
I151
sI160
I152
sI161
I153
sI162
I154
sI163
I155
sI164
I156
sI165
I157
sI166
I158
sI167
I159
sI168
I160
sI169
I161
sI171
I162
sI172
I163
sI173
I164
sI174
I165
sI175
I166
sI176
I167
sI177
I168
sI178
I169
sI179
I170
sI180
I171
sI181
I172
sI182
I173
sI183
I174
sI185
I175
sI187
I176
sI188
I177
sI189
I178
sI190
I179
sI191
I180
sI192
I181
sI193
I182
sI194
I183
sI195
I184
sI196
I185
sI197
I186
sI198
I187
sI199
I188
sI200
I189
sI201
I190
sI202
I191
sI203
I192
sI204
I193
sI205
I194
sI206
I195
sI207
I196
sI208
I197
sI209
I198
sI210
I199
sI211
I200
sI212
I201
sI213
I202
sI214
I203
sI215
I204
sI216
I205
sI217
I206
sI218
I207
sI219
I208
sI221
I209
sI222
I210
sI223
I211
sI224
I212
sI225
I213
sI226
I214
sI227
I215
sI228
I216
sI230
I217
sI231
I218
sI232
I219
sI233
I220
sI234
I221
sI235
I222
sI236
I223
sI237
I224
sI238
I225
sI239
I226
sI240
I227
sI241
I228
sI242
I229
sI243
I230
sI244
I231
sI245
I232
sI246
I233
sI247
I234
sI248
I235
sI249
I236
sI250
I237
sI251
I238
sI252
I239
sI253
I240
sI254
I241
sI255
I242
sI256
I243
sI257
I244
sI258
I245
sI259
I246
sI260
I247
sI261
I248
sI263
I249
sI264
I250
sI265
I251
sI266
I252
sI267
I253
sI268
I254
sI269
I255
sI270
I256
sI271
I257
sI273
I258
sI274
I259
sI275
I260
sI276
I261
sI277
I262
sI280
I263
sI282
I264
sI283
I265
sI284
I266
sI285
I267
sI286
I268
sI287
I269
sI288
I270
sI289
I271
sI290
I272
sI291
I273
sI292
I274
sI293
I275
sI294
I276
sI295
I277
sI296
I278
sI297
I279
sI298
I280
sI299
I281
sI300
I282
sI301
I283
sI302
I284
sI303
I285
sI304
I286
sI305
I287
sI306
I288
sI307
I289
sI308
I290
sI309
I291
sI310
I292
sI311
I293
sI312
I294
sI313
I295
sI314
I296
sI315
I297
sI316
I298
sI317
I299
sI318
I300
sI319
I301
sI320
I302
sI321
I303
sI322
I304
sI323
I305
sI324
I306
sI325
I307
sI326
I308
sI327
I309
sI328
I310
sI329
I311
sI330
I312
sI331
I313
sI332
I314
sI333
I315
sI334
I316
sI335
I317
sI336
I318
sI337
I319
sI338
I320
sI339
I321
sI340
I322
sI341
I323
sI342
I324
sI343
I325
sI344
I326
sI345
I327
sI346
I328
sI347
I329
sI348
I330
sI349
I331
sI350
I332
sI351
I333
sI352
I334
sI353
I335
sI355
I336
sI356
I337
sI357
I338
sI358
I339
sI359
I340
sI362
I341
sI363
I342
sI364
I343
sI365
I344
sI366
I345
sI367
I346
sI368
I347
sI369
I348
sI370
I349
sI371
I350
sI372
I351
sI373
I352
sI374
I353
sI375
I354
sI376
I355
sI377
I356
sI378
I357
sI379
I358
sI381
I359
sI382
I360
sI383
I361
sI384
I362
sI386
I363
sI387
I364
sI388
I365
sI389
I366
sI390
I367
sI391
I368
sI392
I369
sI393
I370
sI394
I371
sI395
I372
sI396
I373
sI397
I374
sI398
I375
sI399
I376
sI400
I377
sI401
I378
sI402
I379
sI403
I380
sI404
I381
sI405
I382
sI406
I383
sI407
I384
sI408
I385
sI409
I386
sI410
I387
sI411
I388
sI412
I389
sI413
I390
sI414
I391
sI415
I392
sI416
I393
sI417
I394
sI418
I395
sI419
I396
sI421
I397
sI422
I398
sI423
I399
sI424
I400
sI425
I401
sI426
I402
sI427
I403
sI428
I404
sI429
I405
sI430
I406
sI431
I407
sI432
I408
sI433
I409
sI434
I410
sI435
I411
sI436
I412
sI437
I413
sI438
I414
sI439
I415
sI440
I416
sI441
I417
sI443
I418
sI444
I419
sI445
I420
sI446
I421
sI447
I422
sI448
I423
sI449
I424
sI450
I425
sI451
I426
sI453
I427
sI454
I428
sI455
I429
sI456
I430
sI457
I431
sI458
I432
sI460
I433
sI461
I434
sI462
I435
sI463
I436
sI465
I437
sI467
I438
sI468
I439
sI469
I440
sI472
I441
sI473
I442
sI476
I443
sI477
I444
sI479
I445
sI480
I446
sI481
I447
sI486
I448
sI488
I449
sI489
I450
sI490
I451
sI492
I452
sI493
I453
sI494
I454
sI495
I455
sI497
I456
sI498
I457
sI499
I458
sI501
I459
sI502
I460
sI504
I461
sI506
I462
sI507
I463
sI509
I464
sI511
I465
sI513
I466
sI514
I467
sI515
I468
sI516
I469
sI517
I470
sI519
I471
sI520
I472
sI521
I473
sI522
I474
sI523
I475
sI524
I476
sI525
I477
sI527
I478
sI528
I479
sI529
I480
sI530
I481
sI531
I482
sI532
I483
sI534
I484
sI536
I485
sI538
I486
sI539
I487
sI540
I488
sI541
I489
sI542
I490
sI543
I491
sI544
I492
sI545
I493
sI546
I494
sI547
I495
sI548
I496
sI549
I497
sI550
I498
sI551
I499
sI552
I500
sI553
I501
sI554
I502
sI555
I503
sI556
I504
sI557
I505
sI558
I506
sI559
I507
sI560
I508
sI561
I509
sI562
I510
sI563
I511
sI564
I512
sI565
I513
sI566
I514
sI567
I515
sI568
I516
sI569
I517
sI570
I518
sI571
I519
sI572
I520
sI573
I521
sI574
I522
sI575
I523
sI576
I524
sI577
I525
sI578
I526
sI579
I527
sI580
I528
sI581
I529
sI582
I530
sI583
I531
sI584
I532
sI585
I533
sI586
I534
sI587
I535
sI588
I536
sI589
I537
sI590
I538
sI591
I539
sI592
I540
sI593
I541
sI594
I542
sI595
I543
sI596
I544
sI597
I545
sI598
I546
sI599
I547
sI600
I548
sI601
I549
sI602
I550
sI604
I551
sI605
I552
sI606
I553
sI607
I554
sI608
I555
sI609
I556
sI610
I557
sI611
I558
sI612
I559
sI613
I560
sI614
I561
sI615
I562
sI616
I563
sI617
I564
sI618
I565
sI619
I566
sI620
I567
sI621
I568
sI622
I569
sI624
I570
sI625
I571
sI626
I572
sI627
I573
sI628
I574
sI631
I575
sI632
I576
sI633
I577
sI634
I578
sI635
I579
sI636
I580
sI637
I581
sI638
I582
sI639
I583
sI640
I584
sI641
I585
sI642
I586
sI643
I587
sI644
I588
sI645
I589
sI646
I590
sI647
I591
sI648
I592
sI649
I593
sI650
I594
sI651
I595
sI652
I596
sI653
I597
sI654
I598
sI655
I599
sI656
I600
sI657
I601
sI658
I602
sI659
I603
sI661
I604
sI662
I605
sI663
I606
sI664
I607
sI665
I608
sI666
I609
sI667
I610
sI668
I611
sI669
I612
sI670
I613
sI672
I614
sI673
I615
sI674
I616
sI675
I617
sI676
I618
sI677
I619
sI678
I620
sI679
I621
sI681
I622
sI682
I623
sI683
I624
sI684
I625
sI686
I626
sI687
I627
sI688
I628
sI689
I629
sI690
I630
sI691
I631
sI692
I632
sI693
I633
sI694
I634
sI695
I635
sI696
I636
sI697
I637
sI698
I638
sI699
I639
sI700
I640
sI701
I641
sI703
I642
sI704
I643
sI705
I644
sI706
I645
sI707
I646
sI708
I647
sI709
I648
sI710
I649
sI711
I650
sI712
I651
sI713
I652
sI714
I653
sI715
I654
sI716
I655
sI717
I656
sI718
I657
sI719
I658
sI720
I659
sI721
I660
sI722
I661
sI723
I662
sI724
I663
sI725
I664
sI726
I665
sI727
I666
sI728
I667
sI729
I668
sI730
I669
sI731
I670
sI732
I671
sI733
I672
sI734
I673
sI735
I674
sI736
I675
sI737
I676
sI738
I677
sI739
I678
sI741
I679
sI742
I680
sI743
I681
sI744
I682
sI745
I683
sI746
I684
sI748
I685
sI749
I686
sI750
I687
sI751
I688
sI752
I689
sI753
I690
sI754
I691
sI755
I692
sI756
I693
sI758
I694
sI759
I695
sI760
I696
sI761
I697
sI762
I698
sI763
I699
sI764
I700
sI765
I701
sI766
I702
sI767
I703
sI768
I704
sI769
I705
sI770
I706
sI771
I707
sI772
I708
sI773
I709
sI774
I710
sI775
I711
sI776
I712
sI778
I713
sI779
I714
sI780
I715
sI781
I716
sI782
I717
sI783
I718
sI784
I719
sI785
I720
sI786
I721
sI787
I722
sI788
I723
sI789
I724
sI791
I725
sI792
I726
sI793
I727
sI794
I728
sI795
I729
sI796
I730
sI797
I731
sI798
I732
sI799
I733
sI800
I734
sI801
I735
sI802
I736
sI803
I737
sI804
I738
sI805
I739
sI806
I740
sI807
I741
sI808
I742
sI810
I743
sI811
I744
sI812
I745
sI813
I746
sI814
I747
sI815
I748
sI816
I749
sI817
I750
sI818
I751
sI819
I752
sI820
I753
sI821
I754
sI822
I755
sI823
I756
sI824
I757
sI825
I758
sI826
I759
sI827
I760
sI829
I761
sI830
I762
sI831
I763
sI832
I764
sI835
I765
sI836
I766
sI837
I767
sI838
I768
sI839
I769
sI840
I770
sI841
I771
sI842
I772
sI843
I773
sI844
I774
sI845
I775
sI847
I776
sI848
I777
sI849
I778
sI850
I779
sI851
I780
sI852
I781
sI853
I782
sI854
I783
sI855
I784
sI856
I785
sI857
I786
sI859
I787
sI860
I788
sI861
I789
sI862
I790
sI863
I791
sI864
I792
sI865
I793
sI866
I794
sI867
I795
sI868
I796
sI869
I797
sI870
I798
sI871
I799
sI872
I800
sI873
I801
sI874
I802
sI875
I803
sI876
I804
sI877
I805
sI878
I806
sI879
I807
sI880
I808
sI881
I809
sI882
I810
sI883
I811
sI885
I812
sI886
I813
sI887
I814
sI888
I815
sI889
I816
sI890
I817
sI891
I818
sI892
I819
sI893
I820
sI895
I821
sI896
I822
sI897
I823
sI898
I824
sI899
I825
sI900
I826
sI902
I827
sI903
I828
sI904
I829
sI905
I830
sI906
I831
sI907
I832
sI908
I833
sI909
I834
sI910
I835
sI911
I836
sI912
I837
sI913
I838
sI914
I839
sI915
I840
sI916
I841
sI917
I842
sI918
I843
sI919
I844
sI920
I845
sI921
I846
sI922
I847
sI923
I848
sI924
I849
sI926
I850
sI927
I851
sI928
I852
sI929
I853
sI930
I854
sI931
I855
sI932
I856
sI933
I857
sI934
I858
sI935
I859
sI936
I860
sI937
I861
sI938
I862
sI940
I863
sI941
I864
sI942
I865
sI943
I866
sI944
I867
sI945
I868
sI946
I869
sI947
I870
sI948
I871
sI949
I872
sI950
I873
sI951
I874
sI954
I875
sI955
I876
sI956
I877
sI957
I878
sI958
I879
sI959
I880
sI960
I881
sI961
I882
sI962
I883
sI963
I884
sI964
I885
sI965
I886
sI966
I887
sI967
I888
sI968
I889
sI969
I890
sI970
I891
sI971
I892
sI972
I893
sI973
I894
sI974
I895
sI975
I896
sI976
I897
sI977
I898
sI978
I899
sI979
I900
sI980
I901
sI981
I902
sI982
I903
sI983
I904
sI984
I905
sI985
I906
sI986
I907
sI987
I908
sI988
I909
sI989
I910
sI990
I911
sI991
I912
sI992
I913
sI993
I914
sI994
I915
sI995
I916
sI996
I917
sI998
I918
sI999
I919
sI1000
I920
sI1001
I921
sI1002
I922
sI1003
I923
sI1004
I924
sI1005
I925
sI1006
I926
sI1007
I927
sI1008
I928
sI1009
I929
sI1010
I930
sI1011
I931
sI1012
I932
sI1013
I933
sI1014
I934
sI1016
I935
sI1017
I936
sI1018
I937
sI1019
I938
sI1020
I939
sI1021
I940
sI1022
I941
sI1023
I942
sI1024
I943
sI1025
I944
sI1026
I945
sI1027
I946
sI1028
I947
sI1029
I948
sI1030
I949
sI1031
I950
sI1032
I951
sI1033
I952
sI1034
I953
sI1035
I954
sI1037
I955
sI1038
I956
sI1039
I957
sI1040
I958
sI1041
I959
sI1042
I960
sI1043
I961
sI1044
I962
sI1045
I963
sI1046
I964
sI1047
I965
sI1048
I966
sI1049
I967
sI1050
I968
sI1051
I969
sI1052
I970
sI1053
I971
sI1055
I972
sI1058
I973
sI1059
I974
sI1060
I975
sI1061
I976
sI1062
I977
sI1063
I978
sI1064
I979
sI1065
I980
sI1066
I981
sI1067
I982
sI1068
I983
sI1070
I984
sI1071
I985
sI1072
I986
sI1074
I987
sI1075
I988
sI1077
I989
sI1078
I990
sI1079
I991
sI1080
I992
sI1081
I993
sI1082
I994
sI1083
I995
sI1084
I996
sI1085
I997
sI1086
I998
sI1087
I999
sI1088
I1000
sI1089
I1001
sI1090
I1002
sI1092
I1003
sI1093
I1004
sI1094
I1005
sI1095
I1006
sI1096
I1007
sI1097
I1008
sI1098
I1009
sI1099
I1010
sI1100
I1011
sI1101
I1012
sI1102
I1013
sI1103
I1014
sI1104
I1015
sI1105
I1016
sI1106
I1017
sI1107
I1018
sI1108
I1019
sI1109
I1020
sI1110
I1021
sI1111
I1022
sI1112
I1023
sI1113
I1024
sI1114
I1025
sI1115
I1026
sI1120
I1027
sI1123
I1028
sI1124
I1029
sI1125
I1030
sI1126
I1031
sI1127
I1032
sI1128
I1033
sI1129
I1034
sI1130
I1035
sI1131
I1036
sI1132
I1037
sI1133
I1038
sI1134
I1039
sI1135
I1040
sI1137
I1041
sI1138
I1042
sI1139
I1043
sI1140
I1044
sI1141
I1045
sI1142
I1046
sI1143
I1047
sI1144
I1048
sI1145
I1049
sI1146
I1050
sI1147
I1051
sI1148
I1052
sI1150
I1053
sI1151
I1054
sI1152
I1055
sI1154
I1056
sI1155
I1057
sI1156
I1058
sI1157
I1059
sI1158
I1060
sI1159
I1061
sI1160
I1062
sI1161
I1063
sI1164
I1064
sI1165
I1065
sI1166
I1066
sI1167
I1067
sI1168
I1068
sI1169
I1069
sI1170
I1070
sI1171
I1071
sI1172
I1072
sI1173
I1073
sI1174
I1074
sI1175
I1075
sI1176
I1076
sI1177
I1077
sI1178
I1078
sI1179
I1079
sI1180
I1080
sI1181
I1081
sI1182
I1082
sI1183
I1083
sI1184
I1084
sI1185
I1085
sI1186
I1086
sI1187
I1087
sI1188
I1088
sI1189
I1089
sI1190
I1090
sI1191
I1091
sI1192
I1092
sI1193
I1093
sI1194
I1094
sI1195
I1095
sI1196
I1096
sI1197
I1097
sI1198
I1098
sI1199
I1099
sI1200
I1100
sI1201
I1101
sI1202
I1102
sI1203
I1103
sI1204
I1104
sI1205
I1105
sI1206
I1106
sI1207
I1107
sI1208
I1108
sI1209
I1109
sI1210
I1110
sI1211
I1111
sI1212
I1112
sI1213
I1113
sI1214
I1114
sI1215
I1115
sI1216
I1116
sI1218
I1117
sI1219
I1118
sI1220
I1119
sI1221
I1120
sI1222
I1121
sI1223
I1122
sI1224
I1123
sI1225
I1124
sI1226
I1125
sI1227
I1126
sI1228
I1127
sI1229
I1128
sI1230
I1129
sI1231
I1130
sI1232
I1131
sI1233
I1132
sI1234
I1133
sI1235
I1134
sI1236
I1135
sI1237
I1136
sI1238
I1137
sI1239
I1138
sI1240
I1139
sI1241
I1140
sI1242
I1141
sI1243
I1142
sI1244
I1143
sI1245
I1144
sI1246
I1145
sI1247
I1146
sI1248
I1147
sI1250
I1148
sI1252
I1149
sI1253
I1150
sI1254
I1151
sI1255
I1152
sI1256
I1153
sI1257
I1154
sI1258
I1155
sI1259
I1156
sI1260
I1157
sI1261
I1158
sI1262
I1159
sI1264
I1160
sI1266
I1161
sI1267
I1162
sI1268
I1163
sI1269
I1164
sI1270
I1165
sI1271
I1166
sI1272
I1167
sI1273
I1168
sI1274
I1169
sI1275
I1170
sI1276
I1171
sI1277
I1172
sI1278
I1173
sI1279
I1174
sI1280
I1175
sI1281
I1176
sI1282
I1177
sI1284
I1178
sI1285
I1179
sI1286
I1180
sI1287
I1181
sI1290
I1182
sI1291
I1183
sI1292
I1184
sI1293
I1185
sI1294
I1186
sI1295
I1187
sI1296
I1188
sI1297
I1189
sI1298
I1190
sI1299
I1191
sI1300
I1192
sI1301
I1193
sI1302
I1194
sI1303
I1195
sI1304
I1196
sI1305
I1197
sI1306
I1198
sI1307
I1199
sI1308
I1200
sI1309
I1201
sI1310
I1202
sI1311
I1203
sI1312
I1204
sI1313
I1205
sI1314
I1206
sI1315
I1207
sI1316
I1208
sI1317
I1209
sI1318
I1210
sI1319
I1211
sI1320
I1212
sI1321
I1213
sI1322
I1214
sI1323
I1215
sI1324
I1216
sI1325
I1217
sI1326
I1218
sI1327
I1219
sI1328
I1220
sI1329
I1221
sI1330
I1222
sI1331
I1223
sI1332
I1224
sI1333
I1225
sI1334
I1226
sI1335
I1227
sI1336
I1228
sI1337
I1229
sI1338
I1230
sI1339
I1231
sI1340
I1232
sI1341
I1233
sI1342
I1234
sI1343
I1235
sI1344
I1236
sI1345
I1237
sI1346
I1238
sI1349
I1239
sI1350
I1240
sI1351
I1241
sI1352
I1242
sI1353
I1243
sI1354
I1244
sI1355
I1245
sI1356
I1246
sI1357
I1247
sI1358
I1248
sI1359
I1249
sI1360
I1250
sI1361
I1251
sI1362
I1252
sI1365
I1253
sI1366
I1254
sI1367
I1255
sI1368
I1256
sI1369
I1257
sI1370
I1258
sI1372
I1259
sI1373
I1260
sI1374
I1261
sI1375
I1262
sI1376
I1263
sI1377
I1264
sI1378
I1265
sI1379
I1266
sI1380
I1267
sI1381
I1268
sI1382
I1269
sI1383
I1270
sI1384
I1271
sI1385
I1272
sI1386
I1273
sI1387
I1274
sI1388
I1275
sI1389
I1276
sI1390
I1277
sI1391
I1278
sI1392
I1279
sI1393
I1280
sI1394
I1281
sI1395
I1282
sI1396
I1283
sI1397
I1284
sI1398
I1285
sI1399
I1286
sI1400
I1287
sI1401
I1288
sI1402
I1289
sI1403
I1290
sI1404
I1291
sI1405
I1292
sI1406
I1293
sI1407
I1294
sI1408
I1295
sI1409
I1296
sI1410
I1297
sI1411
I1298
sI1412
I1299
sI1413
I1300
sI1416
I1301
sI1418
I1302
sI1419
I1303
sI1420
I1304
sI1421
I1305
sI1422
I1306
sI1423
I1307
sI1424
I1308
sI1425
I1309
sI1426
I1310
sI1427
I1311
sI1428
I1312
sI1429
I1313
sI1430
I1314
sI1431
I1315
sI1432
I1316
sI1433
I1317
sI1434
I1318
sI1435
I1319
sI1436
I1320
sI1437
I1321
sI1438
I1322
sI1439
I1323
sI1440
I1324
sI1441
I1325
sI1442
I1326
sI1443
I1327
sI1444
I1328
sI1445
I1329
sI1446
I1330
sI1447
I1331
sI1448
I1332
sI1449
I1333
sI1450
I1334
sI1451
I1335
sI1452
I1336
sI1453
I1337
sI1454
I1338
sI1455
I1339
sI1456
I1340
sI1457
I1341
sI1458
I1342
sI1459
I1343
sI1460
I1344
sI1461
I1345
sI1462
I1346
sI1463
I1347
sI1464
I1348
sI1465
I1349
sI1466
I1350
sI1467
I1351
sI1468
I1352
sI1469
I1353
sI1470
I1354
sI1471
I1355
sI1472
I1356
sI1473
I1357
sI1474
I1358
sI1476
I1359
sI1478
I1360
sI1480
I1361
sI1481
I1362
sI1482
I1363
sI1483
I1364
sI1484
I1365
sI1485
I1366
sI1486
I1367
sI1487
I1368
sI1488
I1369
sI1489
I1370
sI1490
I1371
sI1492
I1372
sI1493
I1373
sI1494
I1374
sI1495
I1375
sI1496
I1376
sI1497
I1377
sI1498
I1378
sI1499
I1379
sI1500
I1380
sI1501
I1381
sI1502
I1382
sI1503
I1383
sI1504
I1384
sI1505
I1385
sI1506
I1386
sI1507
I1387
sI1509
I1388
sI1510
I1389
sI1511
I1390
sI1512
I1391
sI1513
I1392
sI1514
I1393
sI1515
I1394
sI1516
I1395
sI1517
I1396
sI1518
I1397
sI1519
I1398
sI1520
I1399
sI1521
I1400
sI1522
I1401
sI1523
I1402
sI1524
I1403
sI1525
I1404
sI1526
I1405
sI1527
I1406
sI1528
I1407
sI1529
I1408
sI1530
I1409
sI1531
I1410
sI1532
I1411
sI1533
I1412
sI1534
I1413
sI1535
I1414
sI1536
I1415
sI1537
I1416
sI1538
I1417
sI1539
I1418
sI1540
I1419
sI1541
I1420
sI1542
I1421
sI1543
I1422
sI1545
I1423
sI1546
I1424
sI1547
I1425
sI1548
I1426
sI1549
I1427
sI1550
I1428
sI1551
I1429
sI1552
I1430
sI1553
I1431
sI1554
I1432
sI1555
I1433
sI1556
I1434
sI1557
I1435
sI1558
I1436
sI1559
I1437
sI1560
I1438
sI1561
I1439
sI1563
I1440
sI1564
I1441
sI1565
I1442
sI1566
I1443
sI1568
I1444
sI1569
I1445
sI1570
I1446
sI1571
I1447
sI1572
I1448
sI1573
I1449
sI1574
I1450
sI1575
I1451
sI1576
I1452
sI1578
I1453
sI1579
I1454
sI1580
I1455
sI1581
I1456
sI1582
I1457
sI1583
I1458
sI1584
I1459
sI1585
I1460
sI1587
I1461
sI1588
I1462
sI1589
I1463
sI1590
I1464
sI1591
I1465
sI1592
I1466
sI1593
I1467
sI1594
I1468
sI1595
I1469
sI1596
I1470
sI1597
I1471
sI1599
I1472
sI1600
I1473
sI1601
I1474
sI1602
I1475
sI1603
I1476
sI1604
I1477
sI1605
I1478
sI1606
I1479
sI1607
I1480
sI1608
I1481
sI1609
I1482
sI1610
I1483
sI1611
I1484
sI1612
I1485
sI1613
I1486
sI1614
I1487
sI1615
I1488
sI1616
I1489
sI1617
I1490
sI1618
I1491
sI1619
I1492
sI1620
I1493
sI1621
I1494
sI1622
I1495
sI1623
I1496
sI1625
I1497
sI1626
I1498
sI1627
I1499
sI1628
I1500
sI1629
I1501
sI1630
I1502
sI1631
I1503
sI1632
I1504
sI1633
I1505
sI1634
I1506
sI1635
I1507
sI1636
I1508
sI1637
I1509
sI1638
I1510
sI1639
I1511
sI1641
I1512
sI1642
I1513
sI1643
I1514
sI1644
I1515
sI1645
I1516
sI1646
I1517
sI1647
I1518
sI1648
I1519
sI1649
I1520
sI1650
I1521
sI1651
I1522
sI1652
I1523
sI1653
I1524
sI1654
I1525
sI1655
I1526
sI1656
I1527
sI1657
I1528
sI1658
I1529
sI1659
I1530
sI1660
I1531
sI1661
I1532
sI1662
I1533
sI1663
I1534
sI1664
I1535
sI1665
I1536
sI1666
I1537
sI1667
I1538
sI1668
I1539
sI1669
I1540
sI1670
I1541
sI1671
I1542
sI1672
I1543
sI1674
I1544
sI1675
I1545
sI1676
I1546
sI1677
I1547
sI1678
I1548
sI1679
I1549
sI1680
I1550
sI1681
I1551
sI1682
I1552
sI1683
I1553
sI1684
I1554
sI1685
I1555
sI1686
I1556
sI1687
I1557
sI1688
I1558
sI1689
I1559
sI1690
I1560
sI1691
I1561
sI1692
I1562
sI1693
I1563
sI1694
I1564
sI1695
I1565
sI1696
I1566
sI1697
I1567
sI1698
I1568
sI1699
I1569
sI1700
I1570
sI1701
I1571
sI1703
I1572
sI1704
I1573
sI1705
I1574
sI1706
I1575
sI1707
I1576
sI1708
I1577
sI1709
I1578
sI1710
I1579
sI1711
I1580
sI1712
I1581
sI1713
I1582
sI1714
I1583
sI1715
I1584
sI1716
I1585
sI1717
I1586
sI1718
I1587
sI1719
I1588
sI1720
I1589
sI1721
I1590
sI1722
I1591
sI1723
I1592
sI1724
I1593
sI1725
I1594
sI1726
I1595
sI1728
I1596
sI1729
I1597
sI1730
I1598
sI1731
I1599
sI1732
I1600
sI1733
I1601
sI1734
I1602
sI1735
I1603
sI1736
I1604
sI1737
I1605
sI1738
I1606
sI1739
I1607
sI1740
I1608
sI1741
I1609
sI1742
I1610
sI1743
I1611
sI1744
I1612
sI1745
I1613
sI1746
I1614
sI1747
I1615
sI1748
I1616
sI1749
I1617
sI1751
I1618
sI1752
I1619
sI1753
I1620
sI1754
I1621
sI1755
I1622
sI1756
I1623
sI1757
I1624
sI1758
I1625
sI1759
I1626
sI1760
I1627
sI1761
I1628
sI1762
I1629
sI1763
I1630
sI1764
I1631
sI1765
I1632
sI1766
I1633
sI1767
I1634
sI1768
I1635
sI1769
I1636
sI1770
I1637
sI1771
I1638
sI1772
I1639
sI1773
I1640
sI1774
I1641
sI1775
I1642
sI1777
I1643
sI1778
I1644
sI1780
I1645
sI1781
I1646
sI1782
I1647
sI1783
I1648
sI1784
I1649
sI1785
I1650
sI1787
I1651
sI1788
I1652
sI1789
I1653
sI1790
I1654
sI1791
I1655
sI1792
I1656
sI1793
I1657
sI1794
I1658
sI1795
I1659
sI1796
I1660
sI1797
I1661
sI1798
I1662
sI1799
I1663
sI1800
I1664
sI1802
I1665
sI1803
I1666
sI1804
I1667
sI1805
I1668
sI1806
I1669
sI1807
I1670
sI1808
I1671
sI1809
I1672
sI1810
I1673
sI1811
I1674
sI1812
I1675
sI1813
I1676
sI1814
I1677
sI1816
I1678
sI1819
I1679
sI1820
I1680
sI1821
I1681
sI1822
I1682
sI1823
I1683
sI1825
I1684
sI1826
I1685
sI1827
I1686
sI1828
I1687
sI1829
I1688
sI1830
I1689
sI1831
I1690
sI1832
I1691
sI1833
I1692
sI1834
I1693
sI1835
I1694
sI1836
I1695
sI1837
I1696
sI1838
I1697
sI1839
I1698
sI1840
I1699
sI1841
I1700
sI1842
I1701
sI1844
I1702
sI1845
I1703
sI1846
I1704
sI1847
I1705
sI1848
I1706
sI1849
I1707
sI1852
I1708
sI1853
I1709
sI1855
I1710
sI1856
I1711
sI1857
I1712
sI1858
I1713
sI1859
I1714
sI1860
I1715
sI1861
I1716
sI1862
I1717
sI1863
I1718
sI1864
I1719
sI1865
I1720
sI1866
I1721
sI1867
I1722
sI1868
I1723
sI1869
I1724
sI1870
I1725
sI1871
I1726
sI1872
I1727
sI1873
I1728
sI1874
I1729
sI1875
I1730
sI1876
I1731
sI1879
I1732
sI1880
I1733
sI1881
I1734
sI1882
I1735
sI1883
I1736
sI1884
I1737
sI1885
I1738
sI1886
I1739
sI1887
I1740
sI1888
I1741
sI1889
I1742
sI1890
I1743
sI1891
I1744
sI1892
I1745
sI1893
I1746
sI1894
I1747
sI1895
I1748
sI1896
I1749
sI1897
I1750
sI1899
I1751
sI1900
I1752
sI1901
I1753
sI1902
I1754
sI1903
I1755
sI1905
I1756
sI1906
I1757
sI1907
I1758
sI1908
I1759
sI1909
I1760
sI1911
I1761
sI1912
I1762
sI1913
I1763
sI1914
I1764
sI1915
I1765
sI1916
I1766
sI1917
I1767
sI1918
I1768
sI1919
I1769
sI1920
I1770
sI1921
I1771
sI1922
I1772
sI1923
I1773
sI1924
I1774
sI1925
I1775
sI1926
I1776
sI1927
I1777
sI1928
I1778
sI1929
I1779
sI1930
I1780
sI1931
I1781
sI1932
I1782
sI1933
I1783
sI1934
I1784
sI1935
I1785
sI1937
I1786
sI1938
I1787
sI1939
I1788
sI1940
I1789
sI1941
I1790
sI1943
I1791
sI1944
I1792
sI1945
I1793
sI1946
I1794
sI1947
I1795
sI1948
I1796
sI1950
I1797
sI1951
I1798
sI1952
I1799
sI1953
I1800
sI1955
I1801
sI1956
I1802
sI1958
I1803
sI1959
I1804
sI1960
I1805
sI1961
I1806
sI1962
I1807
sI1963
I1808
sI1964
I1809
sI1965
I1810
sI1966
I1811
sI1967
I1812
sI1968
I1813
sI1969
I1814
sI1970
I1815
sI1971
I1816
sI1972
I1817
sI1973
I1818
sI1975
I1819
sI1976
I1820
sI1977
I1821
sI1978
I1822
sI1979
I1823
sI1980
I1824
sI1981
I1825
sI1982
I1826
sI1983
I1827
sI1984
I1828
sI1985
I1829
sI1986
I1830
sI1987
I1831
sI1988
I1832
sI1989
I1833
sI1990
I1834
sI1991
I1835
sI1992
I1836
sI1993
I1837
sI1994
I1838
sI1995
I1839
sI1996
I1840
sI1997
I1841
sI2000
I1842
sI2001
I1843
sI2002
I1844
sI2003
I1845
sI2004
I1846
sI2005
I1847
sI2007
I1848
sI2008
I1849
sI2009
I1850
sI2010
I1851
sI2011
I1852
sI2012
I1853
sI2013
I1854
sI2014
I1855
sI2015
I1856
sI2016
I1857
sI2017
I1858
sI2018
I1859
sI2019
I1860
sI2020
I1861
sI2021
I1862
sI2023
I1863
sI2024
I1864
sI2025
I1865
sI2026
I1866
sI2027
I1867
sI2028
I1868
sI2029
I1869
sI2030
I1870
sI2031
I1871
sI2032
I1872
sI2033
I1873
sI2034
I1874
sI2035
I1875
sI2036
I1876
sI2037
I1877
sI2038
I1878
sI2040
I1879
sI2041
I1880
sI2042
I1881
sI2044
I1882
sI2045
I1883
sI2047
I1884
sI2049
I1885
sI2050
I1886
sI2051
I1887
sI2052
I1888
sI2053
I1889
sI2054
I1890
sI2055
I1891
sI2056
I1892
sI2057
I1893
sI2058
I1894
sI2059
I1895
sI2060
I1896
sI2061
I1897
sI2062
I1898
sI2063
I1899
sI2064
I1900
sI2065
I1901
sI2066
I1902
sI2067
I1903
sI2068
I1904
sI2069
I1905
sI2070
I1906
sI2071
I1907
sI2072
I1908
sI2073
I1909
sI2076
I1910
sI2077
I1911
sI2079
I1912
sI2081
I1913
sI2082
I1914
sI2083
I1915
sI2084
I1916
sI2085
I1917
sI2086
I1918
sI2087
I1919
sI2088
I1920
sI2089
I1921
sI2090
I1922
sI2091
I1923
sI2092
I1924
sI2093
I1925
sI2094
I1926
sI2095
I1927
sI2096
I1928
sI2097
I1929
sI2099
I1930
sI2100
I1931
sI2101
I1932
sI2102
I1933
sI2103
I1934
sI2104
I1935
sI2105
I1936
sI2106
I1937
sI2108
I1938
sI2109
I1939
sI2110
I1940
sI2111
I1941
sI2112
I1942
sI2113
I1943
sI2114
I1944
sI2115
I1945
sI2116
I1946
sI2117
I1947
sI2118
I1948
sI2119
I1949
sI2120
I1950
sI2121
I1951
sI2125
I1952
sI2126
I1953
sI2127
I1954
sI2128
I1955
sI2129
I1956
sI2130
I1957
sI2131
I1958
sI2132
I1959
sI2133
I1960
sI2134
I1961
sI2135
I1962
sI2136
I1963
sI2137
I1964
sI2138
I1965
sI2139
I1966
sI2141
I1967
sI2142
I1968
sI2143
I1969
sI2144
I1970
sI2145
I1971
sI2146
I1972
sI2147
I1973
sI2148
I1974
sI2149
I1975
sI2150
I1976
sI2151
I1977
sI2152
I1978
sI2153
I1979
sI2155
I1980
sI2156
I1981
sI2157
I1982
sI2159
I1983
sI2160
I1984
sI2161
I1985
sI2163
I1986
sI2164
I1987
sI2165
I1988
sI2167
I1989
sI2168
I1990
sI2169
I1991
sI2170
I1992
sI2171
I1993
sI2172
I1994
sI2173
I1995
sI2174
I1996
sI2175
I1997
sI2176
I1998
sI2177
I1999
sI2178
I2000
sI2179
I2001
sI2180
I2002
sI2181
I2003
sI2182
I2004
sI2183
I2005
sI2184
I2006
sI2185
I2007
sI2186
I2008
sI2187
I2009
sI2188
I2010
sI2189
I2011
sI2190
I2012
sI2191
I2013
sI2192
I2014
sI2193
I2015
sI2194
I2016
sI2195
I2017
sI2196
I2018
sI2197
I2019
sI2198
I2020
sI2199
I2021
sI2200
I2022
sI2201
I2023
sI2202
I2024
sI2203
I2025
sI2204
I2026
sI2205
I2027
sI2206
I2028
sI2209
I2029
sI2210
I2030
sI2211
I2031
sI2212
I2032
sI2213
I2033
sI2214
I2034
sI2215
I2035
sI2216
I2036
sI2217
I2037
sI2218
I2038
sI2219
I2039
sI2221
I2040
sI2222
I2041
sI2223
I2042
sI2224
I2043
sI2225
I2044
sI2226
I2045
sI2227
I2046
sI2228
I2047
sI2229
I2048
sI2230
I2049
sI2231
I2050
sI2232
I2051
sI2233
I2052
sI2234
I2053
sI2235
I2054
sI2236
I2055
sI2237
I2056
sI2238
I2057
sI2239
I2058
sI2240
I2059
sI2241
I2060
sI2242
I2061
sI2243
I2062
sI2244
I2063
sI2246
I2064
sI2247
I2065
sI2249
I2066
sI2250
I2067
sI2251
I2068
sI2252
I2069
sI2253
I2070
sI2254
I2071
sI2255
I2072
sI2256
I2073
sI2257
I2074
sI2258
I2075
sI2259
I2076
sI2260
I2077
sI2261
I2078
sI2262
I2079
sI2264
I2080
sI2265
I2081
sI2266
I2082
sI2267
I2083
sI2268
I2084
sI2269
I2085
sI2270
I2086
sI2272
I2087
sI2273
I2088
sI2274
I2089
sI2276
I2090
sI2277
I2091
sI2278
I2092
sI2280
I2093
sI2281
I2094
sI2282
I2095
sI2283
I2096
sI2285
I2097
sI2286
I2098
sI2287
I2099
sI2288
I2100
sI2289
I2101
sI2290
I2102
sI2291
I2103
sI2292
I2104
sI2293
I2105
sI2294
I2106
sI2295
I2107
sI2296
I2108
sI2297
I2109
sI2298
I2110
sI2299
I2111
sI2300
I2112
sI2301
I2113
sI2302
I2114
sI2304
I2115
sI2305
I2116
sI2306
I2117
sI2307
I2118
sI2308
I2119
sI2309
I2120
sI2310
I2121
sI2311
I2122
sI2312
I2123
sI2313
I2124
sI2314
I2125
sI2315
I2126
sI2316
I2127
sI2317
I2128
sI2318
I2129
sI2319
I2130
sI2320
I2131
sI2321
I2132
sI2322
I2133
sI2323
I2134
sI2324
I2135
sI2325
I2136
sI2326
I2137
sI2328
I2138
sI2329
I2139
sI2330
I2140
sI2331
I2141
sI2332
I2142
sI2333
I2143
sI2334
I2144
sI2335
I2145
sI2336
I2146
sI2337
I2147
sI2338
I2148
sI2339
I2149
sI2340
I2150
sI2341
I2151
sI2342
I2152
sI2343
I2153
sI2344
I2154
sI2345
I2155
sI2346
I2156
sI2348
I2157
sI2349
I2158
sI2350
I2159
sI2351
I2160
sI2352
I2161
sI2353
I2162
sI2354
I2163
sI2355
I2164
sI2356
I2165
sI2357
I2166
sI2359
I2167
sI2360
I2168
sI2361
I2169
sI2362
I2170
sI2363
I2171
sI2364
I2172
sI2365
I2173
sI2366
I2174
sI2367
I2175
sI2368
I2176
sI2369
I2177
sI2370
I2178
sI2371
I2179
sI2372
I2180
sI2373
I2181
sI2374
I2182
sI2375
I2183
sI2376
I2184
sI2378
I2185
sI2379
I2186
sI2380
I2187
sI2381
I2188
sI2382
I2189
sI2384
I2190
sI2385
I2191
sI2386
I2192
sI2387
I2193
sI2388
I2194
sI2389
I2195
sI2390
I2196
sI2391
I2197
sI2392
I2198
sI2393
I2199
sI2394
I2200
sI2395
I2201
sI2396
I2202
sI2397
I2203
sI2398
I2204
sI2399
I2205
sI2400
I2206
sI2401
I2207
sI2402
I2208
sI2403
I2209
sI2404
I2210
sI2405
I2211
sI2406
I2212
sI2407
I2213
sI2409
I2214
sI2410
I2215
sI2411
I2216
sI2412
I2217
sI2413
I2218
sI2414
I2219
sI2415
I2220
sI2416
I2221
sI2417
I2222
sI2418
I2223
sI2419
I2224
sI2420
I2225
sI2422
I2226
sI2423
I2227
sI2424
I2228
sI2425
I2229
sI2426
I2230
sI2427
I2231
sI2428
I2232
sI2429
I2233
sI2433
I2234
sI2434
I2235
sI2435
I2236
sI2437
I2237
sI2438
I2238
sI2439
I2239
sI2440
I2240
sI2441
I2241
sI2442
I2242
sI2443
I2243
sI2444
I2244
sI2445
I2245
sI2446
I2246
sI2447
I2247
sI2448
I2248
sI2449
I2249
sI2450
I2250
sI2451
I2251
sI2452
I2252
sI2453
I2253
sI2454
I2254
sI2455
I2255
sI2456
I2256
sI2457
I2257
sI2458
I2258
sI2459
I2259
sI2460
I2260
sI2461
I2261
sI2462
I2262
sI2463
I2263
sI2464
I2264
sI2465
I2265
sI2466
I2266
sI2467
I2267
sI2469
I2268
sI2470
I2269
sI2471
I2270
sI2472
I2271
sI2473
I2272
sI2474
I2273
sI2475
I2274
sI2476
I2275
sI2477
I2276
sI2478
I2277
sI2479
I2278
sI2480
I2279
sI2481
I2280
sI2482
I2281
sI2484
I2282
sI2485
I2283
sI2487
I2284
sI2488
I2285
sI2489
I2286
sI2490
I2287
sI2491
I2288
sI2492
I2289
sI2493
I2290
sI2494
I2291
sI2495
I2292
sI2496
I2293
sI2497
I2294
sI2498
I2295
sI2499
I2296
sI2500
I2297
sI2501
I2298
sI2502
I2299
sI2503
I2300
sI2504
I2301
sI2505
I2302
sI2506
I2303
sI2507
I2304
sI2508
I2305
sI2509
I2306
sI2510
I2307
sI2511
I2308
sI2512
I2309
sI2513
I2310
sI2514
I2311
sI2515
I2312
sI2516
I2313
sI2517
I2314
sI2518
I2315
sI2519
I2316
sI2520
I2317
sI2521
I2318
sI2522
I2319
sI2523
I2320
sI2524
I2321
sI2526
I2322
sI2527
I2323
sI2528
I2324
sI2529
I2325
sI2530
I2326
sI2531
I2327
sI2534
I2328
sI2535
I2329
sI2536
I2330
sI2537
I2331
sI2538
I2332
sI2540
I2333
sI2541
I2334
sI2542
I2335
sI2543
I2336
sI2544
I2337
sI2545
I2338
sI2546
I2339
sI2547
I2340
sI2548
I2341
sI2549
I2342
sI2550
I2343
sI2551
I2344
sI2552
I2345
sI2555
I2346
sI2556
I2347
sI2557
I2348
sI2558
I2349
sI2559
I2350
sI2560
I2351
sI2561
I2352
sI2562
I2353
sI2563
I2354
sI2564
I2355
sI2565
I2356
sI2566
I2357
sI2567
I2358
sI2568
I2359
sI2569
I2360
sI2570
I2361
sI2571
I2362
sI2572
I2363
sI2573
I2364
sI2574
I2365
sI2575
I2366
sI2576
I2367
sI2577
I2368
sI2578
I2369
sI2579
I2370
sI2580
I2371
sI2581
I2372
sI2582
I2373
sI2583
I2374
sI2584
I2375
sI2585
I2376
sI2586
I2377
sI2587
I2378
sI2589
I2379
sI2591
I2380
sI2592
I2381
sI2593
I2382
sI2594
I2383
sI2595
I2384
sI2596
I2385
sI2597
I2386
sI2598
I2387
sI2599
I2388
sI2603
I2389
sI2604
I2390
sI2605
I2391
sI2606
I2392
sI2607
I2393
sI2608
I2394
sI2609
I2395
sI2610
I2396
sI2611
I2397
sI2612
I2398
sI2613
I2399
sI2614
I2400
sI2615
I2401
sI2616
I2402
sI2617
I2403
sI2618
I2404
sI2619
I2405
sI2620
I2406
sI2621
I2407
sI2623
I2408
sI2624
I2409
sI2625
I2410
sI2626
I2411
sI2627
I2412
sI2628
I2413
sI2629
I2414
sI2630
I2415
sI2631
I2416
sI2632
I2417
sI2633
I2418
sI2634
I2419
sI2635
I2420
sI2636
I2421
sI2637
I2422
sI2638
I2423
sI2639
I2424
sI2640
I2425
sI2641
I2426
sI2642
I2427
sI2643
I2428
sI2644
I2429
sI2645
I2430
sI2646
I2431
sI2647
I2432
sI2648
I2433
sI2649
I2434
sI2650
I2435
sI2651
I2436
sI2652
I2437
sI2653
I2438
sI2654
I2439
sI2655
I2440
sI2656
I2441
sI2657
I2442
sI2658
I2443
sI2659
I2444
sI2660
I2445
sI2661
I2446
sI2662
I2447
sI2663
I2448
sI2664
I2449
sI2665
I2450
sI2667
I2451
sI2668
I2452
sI2669
I2453
sI2670
I2454
sI2671
I2455
sI2672
I2456
sI2673
I2457
sI2674
I2458
sI2675
I2459
sI2676
I2460
sI2677
I2461
sI2678
I2462
sI2679
I2463
sI2680
I2464
sI2682
I2465
sI2683
I2466
sI2684
I2467
sI2685
I2468
sI2686
I2469
sI2687
I2470
sI2688
I2471
sI2689
I2472
sI2690
I2473
sI2691
I2474
sI2692
I2475
sI2693
I2476
sI2694
I2477
sI2695
I2478
sI2696
I2479
sI2697
I2480
sI2698
I2481
sI2699
I2482
sI2700
I2483
sI2701
I2484
sI2702
I2485
sI2703
I2486
sI2704
I2487
sI2705
I2488
sI2706
I2489
sI2707
I2490
sI2708
I2491
sI2709
I2492
sI2711
I2493
sI2713
I2494
sI2715
I2495
sI2716
I2496
sI2717
I2497
sI2718
I2498
sI2719
I2499
sI2720
I2500
sI2721
I2501
sI2722
I2502
sI2723
I2503
sI2724
I2504
sI2725
I2505
sI2727
I2506
sI2728
I2507
sI2729
I2508
sI2730
I2509
sI2731
I2510
sI2733
I2511
sI2734
I2512
sI2736
I2513
sI2737
I2514
sI2738
I2515
sI2739
I2516
sI2740
I2517
sI2741
I2518
sI2744
I2519
sI2746
I2520
sI2747
I2521
sI2748
I2522
sI2749
I2523
sI2751
I2524
sI2752
I2525
sI2753
I2526
sI2754
I2527
sI2755
I2528
sI2757
I2529
sI2758
I2530
sI2759
I2531
sI2760
I2532
sI2761
I2533
sI2762
I2534
sI2763
I2535
sI2764
I2536
sI2765
I2537
sI2766
I2538
sI2767
I2539
sI2768
I2540
sI2769
I2541
sI2770
I2542
sI2771
I2543
sI2772
I2544
sI2773
I2545
sI2774
I2546
sI2775
I2547
sI2776
I2548
sI2777
I2549
sI2778
I2550
sI2779
I2551
sI2780
I2552
sI2781
I2553
sI2782
I2554
sI2783
I2555
sI2784
I2556
sI2785
I2557
sI2786
I2558
sI2787
I2559
sI2788
I2560
sI2789
I2561
sI2790
I2562
sI2791
I2563
sI2792
I2564
sI2793
I2565
sI2794
I2566
sI2796
I2567
sI2797
I2568
sI2798
I2569
sI2799
I2570
sI2801
I2571
sI2802
I2572
sI2803
I2573
sI2804
I2574
sI2805
I2575
sI2807
I2576
sI2808
I2577
sI2809
I2578
sI2811
I2579
sI2813
I2580
sI2814
I2581
sI2815
I2582
sI2817
I2583
sI2818
I2584
sI2819
I2585
sI2821
I2586
sI2822
I2587
sI2823
I2588
sI2824
I2589
sI2825
I2590
sI2826
I2591
sI2827
I2592
sI2828
I2593
sI2830
I2594
sI2831
I2595
sI2832
I2596
sI2833
I2597
sI2834
I2598
sI2835
I2599
sI2838
I2600
sI2839
I2601
sI2840
I2602
sI2841
I2603
sI2842
I2604
sI2843
I2605
sI2844
I2606
sI2845
I2607
sI2846
I2608
sI2847
I2609
sI2848
I2610
sI2849
I2611
sI2850
I2612
sI2851
I2613
sI2852
I2614
sI2853
I2615
sI2855
I2616
sI2856
I2617
sI2857
I2618
sI2858
I2619
sI2859
I2620
sI2860
I2621
sI2861
I2622
sI2862
I2623
sI2863
I2624
sI2864
I2625
sI2865
I2626
sI2866
I2627
sI2867
I2628
sI2868
I2629
sI2869
I2630
sI2870
I2631
sI2871
I2632
sI2872
I2633
sI2875
I2634
sI2876
I2635
sI2877
I2636
sI2879
I2637
sI2880
I2638
sI2881
I2639
sI2882
I2640
sI2883
I2641
sI2884
I2642
sI2885
I2643
sI2886
I2644
sI2887
I2645
sI2888
I2646
sI2889
I2647
sI2890
I2648
sI2891
I2649
sI2892
I2650
sI2893
I2651
sI2894
I2652
sI2895
I2653
sI2896
I2654
sI2898
I2655
sI2899
I2656
sI2900
I2657
sI2901
I2658
sI2902
I2659
sI2903
I2660
sI2904
I2661
sI2905
I2662
sI2906
I2663
sI2907
I2664
sI2908
I2665
sI2909
I2666
sI2910
I2667
sI2912
I2668
sI2913
I2669
sI2914
I2670
sI2916
I2671
sI2917
I2672
sI2918
I2673
sI2919
I2674
sI2921
I2675
sI2922
I2676
sI2923
I2677
sI2924
I2678
sI2925
I2679
sI2926
I2680
sI2928
I2681
sI2929
I2682
sI2930
I2683
sI2931
I2684
sI2932
I2685
sI2933
I2686
sI2935
I2687
sI2936
I2688
sI2938
I2689
sI2939
I2690
sI2940
I2691
sI2941
I2692
sI2944
I2693
sI2945
I2694
sI2946
I2695
sI2947
I2696
sI2948
I2697
sI2949
I2698
sI2950
I2699
sI2951
I2700
sI2952
I2701
sI2953
I2702
sI2954
I2703
sI2955
I2704
sI2956
I2705
sI2957
I2706
sI2958
I2707
sI2960
I2708
sI2961
I2709
sI2962
I2710
sI2963
I2711
sI2964
I2712
sI2965
I2713
sI2966
I2714
sI2967
I2715
sI2968
I2716
sI2969
I2717
sI2970
I2718
sI2971
I2719
sI2972
I2720
sI2973
I2721
sI2974
I2722
sI2975
I2723
sI2976
I2724
sI2977
I2725
sI2978
I2726
sI2979
I2727
sI2980
I2728
sI2981
I2729
sI2982
I2730
sI2983
I2731
sI2985
I2732
sI2986
I2733
sI2987
I2734
sI2988
I2735
sI2989
I2736
sI2990
I2737
sI2991
I2738
sI2992
I2739
sI2993
I2740
sI2994
I2741
sI2995
I2742
sI2996
I2743
sI2998
I2744
sI2999
I2745
sI3000
I2746
sI3001
I2747
sI3002
I2748
sI3003
I2749
sI3004
I2750
sI3005
I2751
sI3006
I2752
sI3007
I2753
sI3008
I2754
sI3009
I2755
sI3010
I2756
sI3011
I2757
sI3012
I2758
sI3013
I2759
sI3014
I2760
sI3015
I2761
sI3016
I2762
sI3017
I2763
sI3018
I2764
sI3019
I2765
sI3020
I2766
sI3021
I2767
sI3022
I2768
sI3023
I2769
sI3024
I2770
sI3025
I2771
sI3026
I2772
sI3027
I2773
sI3028
I2774
sI3029
I2775
sI3030
I2776
sI3031
I2777
sI3032
I2778
sI3033
I2779
sI3034
I2780
sI3035
I2781
sI3036
I2782
sI3037
I2783
sI3038
I2784
sI3039
I2785
sI3040
I2786
sI3041
I2787
sI3042
I2788
sI3043
I2789
sI3044
I2790
sI3046
I2791
sI3047
I2792
sI3048
I2793
sI3049
I2794
sI3050
I2795
sI3051
I2796
sI3052
I2797
sI3053
I2798
sI3054
I2799
sI3055
I2800
sI3056
I2801
sI3057
I2802
sI3059
I2803
sI3060
I2804
sI3061
I2805
sI3062
I2806
sI3063
I2807
sI3066
I2808
sI3068
I2809
sI3070
I2810
sI3071
I2811
sI3072
I2812
sI3073
I2813
sI3074
I2814
sI3075
I2815
sI3076
I2816
sI3077
I2817
sI3078
I2818
sI3080
I2819
sI3081
I2820
sI3082
I2821
sI3083
I2822
sI3084
I2823
sI3085
I2824
sI3086
I2825
sI3087
I2826
sI3088
I2827
sI3089
I2828
sI3090
I2829
sI3091
I2830
sI3092
I2831
sI3093
I2832
sI3094
I2833
sI3095
I2834
sI3096
I2835
sI3097
I2836
sI3098
I2837
sI3099
I2838
sI3101
I2839
sI3102
I2840
sI3103
I2841
sI3104
I2842
sI3105
I2843
sI3106
I2844
sI3107
I2845
sI3108
I2846
sI3109
I2847
sI3110
I2848
sI3111
I2849
sI3112
I2850
sI3113
I2851
sI3114
I2852
sI3115
I2853
sI3117
I2854
sI3118
I2855
sI3119
I2856
sI3120
I2857
sI3123
I2858
sI3124
I2859
sI3125
I2860
sI3126
I2861
sI3127
I2862
sI3128
I2863
sI3129
I2864
sI3130
I2865
sI3131
I2866
sI3132
I2867
sI3133
I2868
sI3134
I2869
sI3135
I2870
sI3136
I2871
sI3137
I2872
sI3138
I2873
sI3140
I2874
sI3142
I2875
sI3143
I2876
sI3144
I2877
sI3145
I2878
sI3146
I2879
sI3147
I2880
sI3148
I2881
sI3149
I2882
sI3150
I2883
sI3151
I2884
sI3152
I2885
sI3153
I2886
sI3154
I2887
sI3155
I2888
sI3156
I2889
sI3158
I2890
sI3159
I2891
sI3160
I2892
sI3162
I2893
sI3163
I2894
sI3164
I2895
sI3165
I2896
sI3166
I2897
sI3167
I2898
sI3168
I2899
sI3169
I2900
sI3171
I2901
sI3172
I2902
sI3173
I2903
sI3174
I2904
sI3175
I2905
sI3176
I2906
sI3180
I2907
sI3181
I2908
sI3182
I2909
sI3183
I2910
sI3184
I2911
sI3185
I2912
sI3186
I2913
sI3187
I2914
sI3188
I2915
sI3189
I2916
sI3190
I2917
sI3191
I2918
sI3192
I2919
sI3193
I2920
sI3194
I2921
sI3195
I2922
sI3196
I2923
sI3197
I2924
sI3198
I2925
sI3199
I2926
sI3200
I2927
sI3201
I2928
sI3202
I2929
sI3203
I2930
sI3204
I2931
sI3205
I2932
sI3206
I2933
sI3207
I2934
sI3208
I2935
sI3209
I2936
sI3210
I2937
sI3211
I2938
sI3212
I2939
sI3213
I2940
sI3214
I2941
sI3215
I2942
sI3216
I2943
sI3217
I2944
sI3218
I2945
sI3219
I2946
sI3220
I2947
sI3221
I2948
sI3222
I2949
sI3223
I2950
sI3224
I2951
sI3225
I2952
sI3226
I2953
sI3227
I2954
sI3228
I2955
sI3229
I2956
sI3230
I2957
sI3231
I2958
sI3232
I2959
sI3233
I2960
sI3234
I2961
sI3235
I2962
sI3237
I2963
sI3238
I2964
sI3239
I2965
sI3240
I2966
sI3241
I2967
sI3242
I2968
sI3243
I2969
sI3244
I2970
sI3245
I2971
sI3246
I2972
sI3247
I2973
sI3248
I2974
sI3249
I2975
sI3250
I2976
sI3251
I2977
sI3252
I2978
sI3253
I2979
sI3255
I2980
sI3256
I2981
sI3257
I2982
sI3258
I2983
sI3259
I2984
sI3260
I2985
sI3261
I2986
sI3262
I2987
sI3263
I2988
sI3264
I2989
sI3265
I2990
sI3266
I2991
sI3267
I2992
sI3268
I2993
sI3269
I2994
sI3270
I2995
sI3271
I2996
sI3272
I2997
sI3273
I2998
sI3274
I2999
sI3275
I3000
sI3276
I3001
sI3277
I3002
sI3278
I3003
sI3279
I3004
sI3280
I3005
sI3281
I3006
sI3282
I3007
sI3284
I3008
sI3285
I3009
sI3288
I3010
sI3290
I3011
sI3291
I3012
sI3292
I3013
sI3293
I3014
sI3294
I3015
sI3296
I3016
sI3297
I3017
sI3298
I3018
sI3299
I3019
sI3300
I3020
sI3301
I3021
sI3302
I3022
sI3303
I3023
sI3304
I3024
sI3305
I3025
sI3306
I3026
sI3307
I3027
sI3309
I3028
sI3310
I3029
sI3311
I3030
sI3312
I3031
sI3313
I3032
sI3314
I3033
sI3315
I3034
sI3316
I3035
sI3317
I3036
sI3318
I3037
sI3319
I3038
sI3320
I3039
sI3321
I3040
sI3322
I3041
sI3323
I3042
sI3324
I3043
sI3325
I3044
sI3326
I3045
sI3331
I3046
sI3332
I3047
sI3333
I3048
sI3334
I3049
sI3335
I3050
sI3338
I3051
sI3339
I3052
sI3340
I3053
sI3341
I3054
sI3342
I3055
sI3343
I3056
sI3344
I3057
sI3345
I3058
sI3346
I3059
sI3348
I3060
sI3349
I3061
sI3350
I3062
sI3351
I3063
sI3352
I3064
sI3353
I3065
sI3354
I3066
sI3355
I3067
sI3356
I3068
sI3357
I3069
sI3358
I3070
sI3359
I3071
sI3360
I3072
sI3361
I3073
sI3362
I3074
sI3363
I3075
sI3366
I3076
sI3367
I3077
sI3368
I3078
sI3369
I3079
sI3370
I3080
sI3371
I3081
sI3373
I3082
sI3374
I3083
sI3375
I3084
sI3376
I3085
sI3377
I3086
sI3378
I3087
sI3379
I3088
sI3380
I3089
sI3381
I3090
sI3382
I3091
sI3383
I3092
sI3384
I3093
sI3385
I3094
sI3386
I3095
sI3388
I3096
sI3389
I3097
sI3390
I3098
sI3391
I3099
sI3392
I3100
sI3393
I3101
sI3394
I3102
sI3395
I3103
sI3396
I3104
sI3397
I3105
sI3398
I3106
sI3399
I3107
sI3400
I3108
sI3401
I3109
sI3402
I3110
sI3403
I3111
sI3404
I3112
sI3405
I3113
sI3406
I3114
sI3407
I3115
sI3408
I3116
sI3409
I3117
sI3410
I3118
sI3411
I3119
sI3412
I3120
sI3416
I3121
sI3417
I3122
sI3418
I3123
sI3422
I3124
sI3423
I3125
sI3424
I3126
sI3425
I3127
sI3426
I3128
sI3427
I3129
sI3429
I3130
sI3433
I3131
sI3434
I3132
sI3435
I3133
sI3436
I3134
sI3437
I3135
sI3438
I3136
sI3439
I3137
sI3440
I3138
sI3441
I3139
sI3443
I3140
sI3444
I3141
sI3445
I3142
sI3446
I3143
sI3447
I3144
sI3448
I3145
sI3449
I3146
sI3450
I3147
sI3451
I3148
sI3452
I3149
sI3453
I3150
sI3454
I3151
sI3455
I3152
sI3456
I3153
sI3457
I3154
sI3458
I3155
sI3459
I3156
sI3460
I3157
sI3461
I3158
sI3462
I3159
sI3463
I3160
sI3464
I3161
sI3465
I3162
sI3466
I3163
sI3467
I3164
sI3468
I3165
sI3469
I3166
sI3470
I3167
sI3471
I3168
sI3472
I3169
sI3473
I3170
sI3475
I3171
sI3477
I3172
sI3478
I3173
sI3479
I3174
sI3480
I3175
sI3481
I3176
sI3482
I3177
sI3483
I3178
sI3486
I3179
sI3487
I3180
sI3488
I3181
sI3489
I3182
sI3490
I3183
sI3491
I3184
sI3492
I3185
sI3493
I3186
sI3494
I3187
sI3495
I3188
sI3496
I3189
sI3497
I3190
sI3498
I3191
sI3499
I3192
sI3500
I3193
sI3504
I3194
sI3506
I3195
sI3508
I3196
sI3509
I3197
sI3510
I3198
sI3511
I3199
sI3512
I3200
sI3513
I3201
sI3514
I3202
sI3515
I3203
sI3516
I3204
sI3518
I3205
sI3519
I3206
sI3520
I3207
sI3521
I3208
sI3522
I3209
sI3523
I3210
sI3524
I3211
sI3525
I3212
sI3526
I3213
sI3527
I3214
sI3528
I3215
sI3529
I3216
sI3530
I3217
sI3531
I3218
sI3532
I3219
sI3535
I3220
sI3536
I3221
sI3537
I3222
sI3538
I3223
sI3539
I3224
sI3540
I3225
sI3541
I3226
sI3542
I3227
sI3543
I3228
sI3544
I3229
sI3545
I3230
sI3547
I3231
sI3548
I3232
sI3549
I3233
sI3550
I3234
sI3551
I3235
sI3552
I3236
sI3553
I3237
sI3554
I3238
sI3555
I3239
sI3556
I3240
sI3557
I3241
sI3558
I3242
sI3560
I3243
sI3561
I3244
sI3562
I3245
sI3563
I3246
sI3564
I3247
sI3565
I3248
sI3566
I3249
sI3567
I3250
sI3568
I3251
sI3569
I3252
sI3571
I3253
sI3576
I3254
sI3577
I3255
sI3578
I3256
sI3579
I3257
sI3580
I3258
sI3581
I3259
sI3582
I3260
sI3583
I3261
sI3584
I3262
sI3585
I3263
sI3586
I3264
sI3587
I3265
sI3589
I3266
sI3590
I3267
sI3591
I3268
sI3592
I3269
sI3593
I3270
sI3594
I3271
sI3595
I3272
sI3596
I3273
sI3597
I3274
sI3598
I3275
sI3599
I3276
sI3600
I3277
sI3601
I3278
sI3602
I3279
sI3603
I3280
sI3604
I3281
sI3605
I3282
sI3606
I3283
sI3607
I3284
sI3609
I3285
sI3610
I3286
sI3611
I3287
sI3613
I3288
sI3614
I3289
sI3615
I3290
sI3616
I3291
sI3617
I3292
sI3618
I3293
sI3619
I3294
sI3620
I3295
sI3621
I3296
sI3622
I3297
sI3623
I3298
sI3624
I3299
sI3625
I3300
sI3628
I3301
sI3629
I3302
sI3630
I3303
sI3631
I3304
sI3632
I3305
sI3633
I3306
sI3634
I3307
sI3635
I3308
sI3636
I3309
sI3637
I3310
sI3638
I3311
sI3639
I3312
sI3640
I3313
sI3641
I3314
sI3642
I3315
sI3643
I3316
sI3645
I3317
sI3646
I3318
sI3647
I3319
sI3648
I3320
sI3649
I3321
sI3650
I3322
sI3651
I3323
sI3652
I3324
sI3653
I3325
sI3654
I3326
sI3655
I3327
sI3656
I3328
sI3657
I3329
sI3658
I3330
sI3659
I3331
sI3660
I3332
sI3661
I3333
sI3662
I3334
sI3663
I3335
sI3664
I3336
sI3665
I3337
sI3666
I3338
sI3667
I3339
sI3668
I3340
sI3669
I3341
sI3670
I3342
sI3671
I3343
sI3673
I3344
sI3674
I3345
sI3675
I3346
sI3676
I3347
sI3677
I3348
sI3678
I3349
sI3679
I3350
sI3680
I3351
sI3681
I3352
sI3682
I3353
sI3683
I3354
sI3684
I3355
sI3685
I3356
sI3686
I3357
sI3687
I3358
sI3688
I3359
sI3689
I3360
sI3690
I3361
sI3691
I3362
sI3692
I3363
sI3693
I3364
sI3694
I3365
sI3695
I3366
sI3696
I3367
sI3697
I3368
sI3698
I3369
sI3700
I3370
sI3701
I3371
sI3702
I3372
sI3703
I3373
sI3704
I3374
sI3705
I3375
sI3706
I3376
sI3707
I3377
sI3708
I3378
sI3709
I3379
sI3711
I3380
sI3712
I3381
sI3713
I3382
sI3714
I3383
sI3715
I3384
sI3717
I3385
sI3718
I3386
sI3719
I3387
sI3720
I3388
sI3722
I3389
sI3723
I3390
sI3724
I3391
sI3725
I3392
sI3726
I3393
sI3727
I3394
sI3728
I3395
sI3729
I3396
sI3730
I3397
sI3731
I3398
sI3733
I3399
sI3735
I3400
sI3737
I3401
sI3742
I3402
sI3743
I3403
sI3744
I3404
sI3745
I3405
sI3746
I3406
sI3747
I3407
sI3748
I3408
sI3749
I3409
sI3750
I3410
sI3751
I3411
sI3752
I3412
sI3753
I3413
sI3754
I3414
sI3755
I3415
sI3757
I3416
sI3758
I3417
sI3759
I3418
sI3760
I3419
sI3761
I3420
sI3762
I3421
sI3763
I3422
sI3764
I3423
sI3765
I3424
sI3766
I3425
sI3767
I3426
sI3769
I3427
sI3770
I3428
sI3771
I3429
sI3772
I3430
sI3774
I3431
sI3775
I3432
sI3776
I3433
sI3777
I3434
sI3779
I3435
sI3780
I3436
sI3781
I3437
sI3782
I3438
sI3783
I3439
sI3784
I3440
sI3785
I3441
sI3786
I3442
sI3787
I3443
sI3788
I3444
sI3791
I3445
sI3792
I3446
sI3794
I3447
sI3795
I3448
sI3796
I3449
sI3797
I3450
sI3798
I3451
sI3799
I3452
sI3800
I3453
sI3801
I3454
sI3802
I3455
sI3803
I3456
sI3804
I3457
sI3805
I3458
sI3806
I3459
sI3807
I3460
sI3808
I3461
sI3809
I3462
sI3810
I3463
sI3811
I3464
sI3812
I3465
sI3813
I3466
sI3814
I3467
sI3815
I3468
sI3816
I3469
sI3817
I3470
sI3819
I3471
sI3821
I3472
sI3822
I3473
sI3823
I3474
sI3824
I3475
sI3825
I3476
sI3827
I3477
sI3829
I3478
sI3830
I3479
sI3832
I3480
sI3833
I3481
sI3834
I3482
sI3835
I3483
sI3836
I3484
sI3837
I3485
sI3839
I3486
sI3840
I3487
sI3841
I3488
sI3842
I3489
sI3843
I3490
sI3844
I3491
sI3845
I3492
sI3847
I3493
sI3848
I3494
sI3849
I3495
sI3850
I3496
sI3851
I3497
sI3854
I3498
sI3855
I3499
sI3856
I3500
sI3858
I3501
sI3862
I3502
sI3863
I3503
sI3864
I3504
sI3865
I3505
sI3867
I3506
sI3869
I3507
sI3870
I3508
sI3871
I3509
sI3872
I3510
sI3873
I3511
sI3875
I3512
sI3876
I3513
sI3877
I3514
sI3878
I3515
sI3880
I3516
sI3881
I3517
sI3882
I3518
sI3883
I3519
sI3885
I3520
sI3886
I3521
sI3887
I3522
sI3888
I3523
sI3889
I3524
sI3890
I3525
sI3891
I3526
sI3892
I3527
sI3893
I3528
sI3894
I3529
sI3895
I3530
sI3896
I3531
sI3897
I3532
sI3898
I3533
sI3900
I3534
sI3901
I3535
sI3902
I3536
sI3903
I3537
sI3904
I3538
sI3905
I3539
sI3906
I3540
sI3907
I3541
sI3908
I3542
sI3909
I3543
sI3910
I3544
sI3911
I3545
sI3912
I3546
sI3914
I3547
sI3916
I3548
sI3917
I3549
sI3918
I3550
sI3919
I3551
sI3920
I3552
sI3921
I3553
sI3922
I3554
sI3923
I3555
sI3924
I3556
sI3925
I3557
sI3926
I3558
sI3927
I3559
sI3928
I3560
sI3929
I3561
sI3930
I3562
sI3931
I3563
sI3932
I3564
sI3933
I3565
sI3935
I3566
sI3936
I3567
sI3937
I3568
sI3939
I3569
sI3941
I3570
sI3942
I3571
sI3943
I3572
sI3944
I3573
sI3945
I3574
sI3946
I3575
sI3947
I3576
sI3948
I3577
sI3949
I3578
sI3952
I3579
sI3953
I3580
sI3954
I3581
sI3955
I3582
sI3956
I3583
sI3957
I3584
sI3958
I3585
sI3959
I3586
sI3960
I3587
sI3961
I3588
sI3962
I3589
sI3963
I3590
sI3964
I3591
sI3965
I3592
sI3966
I3593
sI3967
I3594
sI3968
I3595
sI3969
I3596
sI3970
I3597
sI3971
I3598
sI3973
I3599
sI3974
I3600
sI3976
I3601
sI3977
I3602
sI3978
I3603
sI3979
I3604
sI3980
I3605
sI3981
I3606
sI3982
I3607
sI3983
I3608
sI3984
I3609
sI3985
I3610
sI3986
I3611
sI3987
I3612
sI3989
I3613
sI3990
I3614
sI3991
I3615
sI3992
I3616
sI3995
I3617
sI3997
I3618
sI3998
I3619
sI3999
I3620
sI4000
I3621
sI4001
I3622
sI4005
I3623
sI4006
I3624
sI4007
I3625
sI4008
I3626
sI4009
I3627
sI4010
I3628
sI4011
I3629
sI4012
I3630
sI4013
I3631
sI4014
I3632
sI4015
I3633
sI4016
I3634
sI4019
I3635
sI4020
I3636
sI4021
I3637
sI4023
I3638
sI4024
I3639
sI4025
I3640
sI4026
I3641
sI4027
I3642
sI4028
I3643
sI4030
I3644
sI4031
I3645
sI4034
I3646
sI4035
I3647
sI4036
I3648
sI4037
I3649
sI4038
I3650
sI4039
I3651
sI4040
I3652
sI4041
I3653
sI4042
I3654
sI4043
I3655
sI4044
I3656
sI4045
I3657
sI4046
I3658
sI4047
I3659
sI4048
I3660
sI4049
I3661
sI4050
I3662
sI4051
I3663
sI4053
I3664
sI4055
I3665
sI4056
I3666
sI4057
I3667
sI4058
I3668
sI4059
I3669
sI4061
I3670
sI4062
I3671
sI4063
I3672
sI4064
I3673
sI4065
I3674
sI4066
I3675
sI4067
I3676
sI4068
I3677
sI4069
I3678
sI4070
I3679
sI4071
I3680
sI4072
I3681
sI4073
I3682
sI4074
I3683
sI4075
I3684
sI4076
I3685
sI4077
I3686
sI4078
I3687
sI4079
I3688
sI4080
I3689
sI4082
I3690
sI4083
I3691
sI4085
I3692
sI4086
I3693
sI4088
I3694
sI4089
I3695
sI4090
I3696
sI4091
I3697
sI4092
I3698
sI4093
I3699
sI4095
I3700
sI4096
I3701
sI4097
I3702
sI4098
I3703
sI4099
I3704
sI4100
I3705
sI4103
I3706
sI4104
I3707
sI4105
I3708
sI4106
I3709
sI4107
I3710
sI4108
I3711
sI4109
I3712
sI4110
I3713
sI4111
I3714
sI4116
I3715
sI4117
I3716
sI4119
I3717
sI4120
I3718
sI4121
I3719
sI4122
I3720
sI4123
I3721
sI4124
I3722
sI4125
I3723
sI4126
I3724
sI4127
I3725
sI4128
I3726
sI4129
I3727
sI4130
I3728
sI4131
I3729
sI4132
I3730
sI4133
I3731
sI4134
I3732
sI4135
I3733
sI4136
I3734
sI4137
I3735
sI4138
I3736
sI4139
I3737
sI4140
I3738
sI4141
I3739
sI4142
I3740
sI4143
I3741
sI4144
I3742
sI4145
I3743
sI4146
I3744
sI4147
I3745
sI4148
I3746
sI4149
I3747
sI4150
I3748
sI4151
I3749
sI4152
I3750
sI4153
I3751
sI4154
I3752
sI4155
I3753
sI4159
I3754
sI4162
I3755
sI4163
I3756
sI4164
I3757
sI4165
I3758
sI4166
I3759
sI4167
I3760
sI4168
I3761
sI4169
I3762
sI4170
I3763
sI4171
I3764
sI4173
I3765
sI4174
I3766
sI4175
I3767
sI4176
I3768
sI4177
I3769
sI4178
I3770
sI4179
I3771
sI4180
I3772
sI4181
I3773
sI4183
I3774
sI4184
I3775
sI4185
I3776
sI4186
I3777
sI4187
I3778
sI4188
I3779
sI4189
I3780
sI4190
I3781
sI4191
I3782
sI4192
I3783
sI4194
I3784
sI4195
I3785
sI4197
I3786
sI4198
I3787
sI4199
I3788
sI4200
I3789
sI4201
I3790
sI4202
I3791
sI4203
I3792
sI4204
I3793
sI4205
I3794
sI4206
I3795
sI4207
I3796
sI4208
I3797
sI4209
I3798
sI4210
I3799
sI4211
I3800
sI4212
I3801
sI4213
I3802
sI4214
I3803
sI4215
I3804
sI4216
I3805
sI4217
I3806
sI4218
I3807
sI4219
I3808
sI4220
I3809
sI4221
I3810
sI4222
I3811
sI4223
I3812
sI4224
I3813
sI4225
I3814
sI4228
I3815
sI4229
I3816
sI4231
I3817
sI4232
I3818
sI4233
I3819
sI4234
I3820
sI4235
I3821
sI4236
I3822
sI4237
I3823
sI4238
I3824
sI4240
I3825
sI4241
I3826
sI4242
I3827
sI4243
I3828
sI4244
I3829
sI4245
I3830
sI4246
I3831
sI4247
I3832
sI4248
I3833
sI4249
I3834
sI4250
I3835
sI4251
I3836
sI4252
I3837
sI4254
I3838
sI4255
I3839
sI4256
I3840
sI4257
I3841
sI4259
I3842
sI4260
I3843
sI4261
I3844
sI4263
I3845
sI4264
I3846
sI4265
I3847
sI4266
I3848
sI4267
I3849
sI4269
I3850
sI4272
I3851
sI4273
I3852
sI4274
I3853
sI4275
I3854
sI4276
I3855
sI4277
I3856
sI4278
I3857
sI4279
I3858
sI4280
I3859
sI4282
I3860
sI4283
I3861
sI4284
I3862
sI4285
I3863
sI4289
I3864
sI4290
I3865
sI4291
I3866
sI4292
I3867
sI4295
I3868
sI4296
I3869
sI4297
I3870
sI4298
I3871
sI4299
I3872
sI4303
I3873
sI4304
I3874
sI4305
I3875
sI4306
I3876
sI4307
I3877
sI4308
I3878
sI4310
I3879
sI4311
I3880
sI4312
I3881
sI4313
I3882
sI4314
I3883
sI4315
I3884
sI4316
I3885
sI4317
I3886
sI4318
I3887
sI4319
I3888
sI4320
I3889
sI4321
I3890
sI4322
I3891
sI4323
I3892
sI4324
I3893
sI4325
I3894
sI4326
I3895
sI4327
I3896
sI4328
I3897
sI4329
I3898
sI4331
I3899
sI4332
I3900
sI4333
I3901
sI4334
I3902
sI4335
I3903
sI4336
I3904
sI4337
I3905
sI4338
I3906
sI4340
I3907
sI4341
I3908
sI4342
I3909
sI4343
I3910
sI4344
I3911
sI4345
I3912
sI4346
I3913
sI4347
I3914
sI4348
I3915
sI4349
I3916
sI4351
I3917
sI4352
I3918
sI4353
I3919
sI4354
I3920
sI4355
I3921
sI4357
I3922
sI4358
I3923
sI4359
I3924
sI4360
I3925
sI4361
I3926
sI4362
I3927
sI4363
I3928
sI4364
I3929
sI4365
I3930
sI4366
I3931
sI4368
I3932
sI4369
I3933
sI4370
I3934
sI4371
I3935
sI4372
I3936
sI4373
I3937
sI4375
I3938
sI4377
I3939
sI4378
I3940
sI4379
I3941
sI4380
I3942
sI4381
I3943
sI4382
I3944
sI4383
I3945
sI4384
I3946
sI4385
I3947
sI4386
I3948
sI4389
I3949
sI4393
I3950
sI4394
I3951
sI4395
I3952
sI4396
I3953
sI4397
I3954
sI4398
I3955
sI4399
I3956
sI4400
I3957
sI4401
I3958
sI4402
I3959
sI4403
I3960
sI4404
I3961
sI4405
I3962
sI4406
I3963
sI4407
I3964
sI4408
I3965
sI4409
I3966
sI4411
I3967
sI4412
I3968
sI4413
I3969
sI4414
I3970
sI4415
I3971
sI4416
I3972
sI4417
I3973
sI4418
I3974
sI4422
I3975
sI4423
I3976
sI4424
I3977
sI4425
I3978
sI4426
I3979
sI4427
I3980
sI4428
I3981
sI4429
I3982
sI4430
I3983
sI4431
I3984
sI4432
I3985
sI4433
I3986
sI4434
I3987
sI4435
I3988
sI4436
I3989
sI4437
I3990
sI4438
I3991
sI4439
I3992
sI4440
I3993
sI4441
I3994
sI4442
I3995
sI4443
I3996
sI4444
I3997
sI4445
I3998
sI4446
I3999
sI4447
I4000
sI4448
I4001
sI4449
I4002
sI4450
I4003
sI4451
I4004
sI4452
I4005
sI4453
I4006
sI4454
I4007
sI4455
I4008
sI4456
I4009
sI4457
I4010
sI4458
I4011
sI4459
I4012
sI4460
I4013
sI4461
I4014
sI4462
I4015
sI4463
I4016
sI4464
I4017
sI4465
I4018
sI4466
I4019
sI4467
I4020
sI4468
I4021
sI4469
I4022
sI4470
I4023
sI4471
I4024
sI4473
I4025
sI4474
I4026
sI4475
I4027
sI4476
I4028
sI4477
I4029
sI4478
I4030
sI4479
I4031
sI4480
I4032
sI4481
I4033
sI4482
I4034
sI4483
I4035
sI4485
I4036
sI4486
I4037
sI4487
I4038
sI4488
I4039
sI4489
I4040
sI4490
I4041
sI4491
I4042
sI4492
I4043
sI4493
I4044
sI4494
I4045
sI4495
I4046
sI4496
I4047
sI4497
I4048
sI4498
I4049
sI4500
I4050
sI4502
I4051
sI4503
I4052
sI4504
I4053
sI4507
I4054
sI4508
I4055
sI4509
I4056
sI4510
I4057
sI4511
I4058
sI4516
I4059
sI4521
I4060
sI4523
I4061
sI4524
I4062
sI4526
I4063
sI4527
I4064
sI4528
I4065
sI4529
I4066
sI4530
I4067
sI4531
I4068
sI4532
I4069
sI4533
I4070
sI4534
I4071
sI4535
I4072
sI4536
I4073
sI4538
I4074
sI4539
I4075
sI4540
I4076
sI4541
I4077
sI4542
I4078
sI4543
I4079
sI4544
I4080
sI4545
I4081
sI4547
I4082
sI4550
I4083
sI4551
I4084
sI4552
I4085
sI4553
I4086
sI4554
I4087
sI4555
I4088
sI4556
I4089
sI4557
I4090
sI4558
I4091
sI4560
I4092
sI4561
I4093
sI4562
I4094
sI4563
I4095
sI4564
I4096
sI4565
I4097
sI4566
I4098
sI4567
I4099
sI4568
I4100
sI4569
I4101
sI4574
I4102
sI4575
I4103
sI4576
I4104
sI4577
I4105
sI4578
I4106
sI4580
I4107
sI4581
I4108
sI4582
I4109
sI4583
I4110
sI4584
I4111
sI4586
I4112
sI4587
I4113
sI4588
I4114
sI4591
I4115
sI4592
I4116
sI4593
I4117
sI4594
I4118
sI4595
I4119
sI4596
I4120
sI4597
I4121
sI4598
I4122
sI4599
I4123
sI4600
I4124
sI4601
I4125
sI4602
I4126
sI4603
I4127
sI4604
I4128
sI4605
I4129
sI4607
I4130
sI4608
I4131
sI4609
I4132
sI4611
I4133
sI4612
I4134
sI4613
I4135
sI4615
I4136
sI4616
I4137
sI4617
I4138
sI4618
I4139
sI4619
I4140
sI4620
I4141
sI4621
I4142
sI4622
I4143
sI4623
I4144
sI4624
I4145
sI4625
I4146
sI4626
I4147
sI4627
I4148
sI4629
I4149
sI4630
I4150
sI4631
I4151
sI4632
I4152
sI4633
I4153
sI4635
I4154
sI4636
I4155
sI4638
I4156
sI4639
I4157
sI4640
I4158
sI4641
I4159
sI4644
I4160
sI4645
I4161
sI4646
I4162
sI4647
I4163
sI4648
I4164
sI4649
I4165
sI4650
I4166
sI4651
I4167
sI4652
I4168
sI4653
I4169
sI4654
I4170
sI4655
I4171
sI4658
I4172
sI4659
I4173
sI4660
I4174
sI4661
I4175
sI4662
I4176
sI4663
I4177
sI4664
I4178
sI4665
I4179
sI4666
I4180
sI4667
I4181
sI4668
I4182
sI4669
I4183
sI4670
I4184
sI4671
I4185
sI4672
I4186
sI4673
I4187
sI4674
I4188
sI4675
I4189
sI4677
I4190
sI4678
I4191
sI4681
I4192
sI4682
I4193
sI4683
I4194
sI4684
I4195
sI4686
I4196
sI4687
I4197
sI4688
I4198
sI4689
I4199
sI4692
I4200
sI4693
I4201
sI4694
I4202
sI4695
I4203
sI4696
I4204
sI4697
I4205
sI4698
I4206
sI4699
I4207
sI4700
I4208
sI4701
I4209
sI4702
I4210
sI4703
I4211
sI4704
I4212
sI4705
I4213
sI4706
I4214
sI4707
I4215
sI4708
I4216
sI4709
I4217
sI4710
I4218
sI4711
I4219
sI4712
I4220
sI4713
I4221
sI4714
I4222
sI4715
I4223
sI4716
I4224
sI4717
I4225
sI4718
I4226
sI4719
I4227
sI4720
I4228
sI4721
I4229
sI4723
I4230
sI4725
I4231
sI4726
I4232
sI4727
I4233
sI4728
I4234
sI4733
I4235
sI4735
I4236
sI4736
I4237
sI4737
I4238
sI4738
I4239
sI4739
I4240
sI4740
I4241
sI4741
I4242
sI4742
I4243
sI4743
I4244
sI4744
I4245
sI4745
I4246
sI4746
I4247
sI4748
I4248
sI4749
I4249
sI4750
I4250
sI4751
I4251
sI4752
I4252
sI4753
I4253
sI4754
I4254
sI4755
I4255
sI4756
I4256
sI4757
I4257
sI4759
I4258
sI4760
I4259
sI4761
I4260
sI4762
I4261
sI4763
I4262
sI4764
I4263
sI4765
I4264
sI4766
I4265
sI4767
I4266
sI4771
I4267
sI4773
I4268
sI4774
I4269
sI4776
I4270
sI4777
I4271
sI4778
I4272
sI4779
I4273
sI4780
I4274
sI4781
I4275
sI4782
I4276
sI4783
I4277
sI4785
I4278
sI4786
I4279
sI4787
I4280
sI4788
I4281
sI4789
I4282
sI4790
I4283
sI4791
I4284
sI4792
I4285
sI4793
I4286
sI4794
I4287
sI4795
I4288
sI4796
I4289
sI4797
I4290
sI4798
I4291
sI4799
I4292
sI4800
I4293
sI4801
I4294
sI4803
I4295
sI4804
I4296
sI4805
I4297
sI4806
I4298
sI4807
I4299
sI4808
I4300
sI4809
I4301
sI4810
I4302
sI4811
I4303
sI4813
I4304
sI4814
I4305
sI4815
I4306
sI4816
I4307
sI4817
I4308
sI4818
I4309
sI4819
I4310
sI4820
I4311
sI4821
I4312
sI4822
I4313
sI4823
I4314
sI4824
I4315
sI4825
I4316
sI4826
I4317
sI4827
I4318
sI4828
I4319
sI4829
I4320
sI4830
I4321
sI4831
I4322
sI4832
I4323
sI4833
I4324
sI4834
I4325
sI4835
I4326
sI4836
I4327
sI4837
I4328
sI4838
I4329
sI4839
I4330
sI4840
I4331
sI4841
I4332
sI4842
I4333
sI4843
I4334
sI4844
I4335
sI4845
I4336
sI4846
I4337
sI4847
I4338
sI4848
I4339
sI4849
I4340
sI4850
I4341
sI4851
I4342
sI4852
I4343
sI4853
I4344
sI4854
I4345
sI4855
I4346
sI4856
I4347
sI4857
I4348
sI4858
I4349
sI4859
I4350
sI4860
I4351
sI4861
I4352
sI4862
I4353
sI4863
I4354
sI4864
I4355
sI4866
I4356
sI4867
I4357
sI4868
I4358
sI4869
I4359
sI4870
I4360
sI4871
I4361
sI4872
I4362
sI4873
I4363
sI4874
I4364
sI4875
I4365
sI4876
I4366
sI4879
I4367
sI4880
I4368
sI4881
I4369
sI4882
I4370
sI4883
I4371
sI4884
I4372
sI4885
I4373
sI4886
I4374
sI4887
I4375
sI4889
I4376
sI4890
I4377
sI4891
I4378
sI4893
I4379
sI4894
I4380
sI4896
I4381
sI4897
I4382
sI4898
I4383
sI4899
I4384
sI4900
I4385
sI4901
I4386
sI4903
I4387
sI4904
I4388
sI4905
I4389
sI4906
I4390
sI4908
I4391
sI4909
I4392
sI4910
I4393
sI4911
I4394
sI4912
I4395
sI4913
I4396
sI4914
I4397
sI4915
I4398
sI4916
I4399
sI4917
I4400
sI4918
I4401
sI4919
I4402
sI4920
I4403
sI4921
I4404
sI4922
I4405
sI4923
I4406
sI4924
I4407
sI4925
I4408
sI4926
I4409
sI4927
I4410
sI4929
I4411
sI4931
I4412
sI4932
I4413
sI4933
I4414
sI4934
I4415
sI4935
I4416
sI4936
I4417
sI4937
I4418
sI4938
I4419
sI4940
I4420
sI4942
I4421
sI4943
I4422
sI4944
I4423
sI4945
I4424
sI4946
I4425
sI4947
I4426
sI4948
I4427
sI4950
I4428
sI4951
I4429
sI4952
I4430
sI4953
I4431
sI4954
I4432
sI4957
I4433
sI4960
I4434
sI4962
I4435
sI4963
I4436
sI4964
I4437
sI4965
I4438
sI4966
I4439
sI4967
I4440
sI4969
I4441
sI4970
I4442
sI4971
I4443
sI4972
I4444
sI4973
I4445
sI4974
I4446
sI4975
I4447
sI4976
I4448
sI4977
I4449
sI4978
I4450
sI4979
I4451
sI4980
I4452
sI4981
I4453
sI4982
I4454
sI4983
I4455
sI4985
I4456
sI4986
I4457
sI4987
I4458
sI4988
I4459
sI4989
I4460
sI4991
I4461
sI4992
I4462
sI4993
I4463
sI4994
I4464
sI4995
I4465
sI4996
I4466
sI4999
I4467
sI5000
I4468
sI5001
I4469
sI5002
I4470
sI5003
I4471
sI5005
I4472
sI5006
I4473
sI5008
I4474
sI5009
I4475
sI5010
I4476
sI5011
I4477
sI5012
I4478
sI5013
I4479
sI5015
I4480
sI5016
I4481
sI5017
I4482
sI5018
I4483
sI5019
I4484
sI5020
I4485
sI5022
I4486
sI5024
I4487
sI5026
I4488
sI5028
I4489
sI5029
I4490
sI5031
I4491
sI5032
I4492
sI5033
I4493
sI5035
I4494
sI5036
I4495
sI5037
I4496
sI5038
I4497
sI5039
I4498
sI5040
I4499
sI5043
I4500
sI5044
I4501
sI5045
I4502
sI5046
I4503
sI5047
I4504
sI5048
I4505
sI5050
I4506
sI5051
I4507
sI5052
I4508
sI5053
I4509
sI5054
I4510
sI5055
I4511
sI5057
I4512
sI5058
I4513
sI5059
I4514
sI5060
I4515
sI5061
I4516
sI5062
I4517
sI5063
I4518
sI5064
I4519
sI5065
I4520
sI5067
I4521
sI5068
I4522
sI5069
I4523
sI5070
I4524
sI5071
I4525
sI5072
I4526
sI5073
I4527
sI5075
I4528
sI5077
I4529
sI5078
I4530
sI5079
I4531
sI5080
I4532
sI5081
I4533
sI5083
I4534
sI5084
I4535
sI5085
I4536
sI5086
I4537
sI5087
I4538
sI5088
I4539
sI5089
I4540
sI5090
I4541
sI5091
I4542
sI5092
I4543
sI5093
I4544
sI5095
I4545
sI5096
I4546
sI5097
I4547
sI5098
I4548
sI5099
I4549
sI5100
I4550
sI5102
I4551
sI5103
I4552
sI5104
I4553
sI5105
I4554
sI5106
I4555
sI5109
I4556
sI5110
I4557
sI5111
I4558
sI5112
I4559
sI5114
I4560
sI5115
I4561
sI5116
I4562
sI5117
I4563
sI5118
I4564
sI5119
I4565
sI5120
I4566
sI5121
I4567
sI5122
I4568
sI5123
I4569
sI5124
I4570
sI5125
I4571
sI5126
I4572
sI5127
I4573
sI5128
I4574
sI5129
I4575
sI5130
I4576
sI5132
I4577
sI5133
I4578
sI5135
I4579
sI5136
I4580
sI5138
I4581
sI5139
I4582
sI5140
I4583
sI5141
I4584
sI5142
I4585
sI5143
I4586
sI5144
I4587
sI5145
I4588
sI5146
I4589
sI5148
I4590
sI5150
I4591
sI5151
I4592
sI5152
I4593
sI5153
I4594
sI5154
I4595
sI5155
I4596
sI5158
I4597
sI5159
I4598
sI5160
I4599
sI5161
I4600
sI5162
I4601
sI5163
I4602
sI5164
I4603
sI5166
I4604
sI5167
I4605
sI5171
I4606
sI5172
I4607
sI5173
I4608
sI5174
I4609
sI5175
I4610
sI5176
I4611
sI5177
I4612
sI5178
I4613
sI5179
I4614
sI5180
I4615
sI5181
I4616
sI5182
I4617
sI5183
I4618
sI5184
I4619
sI5185
I4620
sI5186
I4621
sI5187
I4622
sI5188
I4623
sI5189
I4624
sI5190
I4625
sI5191
I4626
sI5192
I4627
sI5193
I4628
sI5194
I4629
sI5195
I4630
sI5196
I4631
sI5197
I4632
sI5198
I4633
sI5199
I4634
sI5200
I4635
sI5201
I4636
sI5202
I4637
sI5203
I4638
sI5204
I4639
sI5207
I4640
sI5208
I4641
sI5209
I4642
sI5210
I4643
sI5213
I4644
sI5214
I4645
sI5215
I4646
sI5216
I4647
sI5217
I4648
sI5218
I4649
sI5219
I4650
sI5220
I4651
sI5221
I4652
sI5222
I4653
sI5224
I4654
sI5225
I4655
sI5226
I4656
sI5227
I4657
sI5228
I4658
sI5229
I4659
sI5230
I4660
sI5231
I4661
sI5232
I4662
sI5233
I4663
sI5238
I4664
sI5239
I4665
sI5240
I4666
sI5241
I4667
sI5242
I4668
sI5243
I4669
sI5244
I4670
sI5245
I4671
sI5246
I4672
sI5247
I4673
sI5248
I4674
sI5249
I4675
sI5250
I4676
sI5251
I4677
sI5252
I4678
sI5253
I4679
sI5254
I4680
sI5255
I4681
sI5260
I4682
sI5261
I4683
sI5262
I4684
sI5263
I4685
sI5264
I4686
sI5265
I4687
sI5267
I4688
sI5269
I4689
sI5271
I4690
sI5273
I4691
sI5274
I4692
sI5275
I4693
sI5276
I4694
sI5277
I4695
sI5278
I4696
sI5280
I4697
sI5281
I4698
sI5282
I4699
sI5283
I4700
sI5284
I4701
sI5285
I4702
sI5286
I4703
sI5287
I4704
sI5288
I4705
sI5289
I4706
sI5290
I4707
sI5291
I4708
sI5294
I4709
sI5295
I4710
sI5296
I4711
sI5298
I4712
sI5299
I4713
sI5300
I4714
sI5301
I4715
sI5303
I4716
sI5305
I4717
sI5306
I4718
sI5308
I4719
sI5309
I4720
sI5310
I4721
sI5311
I4722
sI5312
I4723
sI5313
I4724
sI5314
I4725
sI5315
I4726
sI5316
I4727
sI5317
I4728
sI5320
I4729
sI5321
I4730
sI5322
I4731
sI5323
I4732
sI5324
I4733
sI5326
I4734
sI5327
I4735
sI5328
I4736
sI5329
I4737
sI5330
I4738
sI5332
I4739
sI5333
I4740
sI5334
I4741
sI5335
I4742
sI5336
I4743
sI5337
I4744
sI5339
I4745
sI5341
I4746
sI5342
I4747
sI5343
I4748
sI5344
I4749
sI5345
I4750
sI5346
I4751
sI5347
I4752
sI5348
I4753
sI5350
I4754
sI5351
I4755
sI5352
I4756
sI5353
I4757
sI5354
I4758
sI5355
I4759
sI5356
I4760
sI5357
I4761
sI5358
I4762
sI5360
I4763
sI5361
I4764
sI5362
I4765
sI5363
I4766
sI5364
I4767
sI5365
I4768
sI5366
I4769
sI5367
I4770
sI5368
I4771
sI5370
I4772
sI5371
I4773
sI5372
I4774
sI5373
I4775
sI5374
I4776
sI5375
I4777
sI5376
I4778
sI5377
I4779
sI5378
I4780
sI5380
I4781
sI5381
I4782
sI5382
I4783
sI5384
I4784
sI5385
I4785
sI5386
I4786
sI5387
I4787
sI5388
I4788
sI5390
I4789
sI5391
I4790
sI5392
I4791
sI5393
I4792
sI5395
I4793
sI5396
I4794
sI5397
I4795
sI5398
I4796
sI5399
I4797
sI5400
I4798
sI5401
I4799
sI5404
I4800
sI5405
I4801
sI5406
I4802
sI5410
I4803
sI5412
I4804
sI5413
I4805
sI5414
I4806
sI5415
I4807
sI5416
I4808
sI5417
I4809
sI5418
I4810
sI5419
I4811
sI5421
I4812
sI5422
I4813
sI5423
I4814
sI5424
I4815
sI5426
I4816
sI5427
I4817
sI5428
I4818
sI5429
I4819
sI5430
I4820
sI5431
I4821
sI5432
I4822
sI5434
I4823
sI5435
I4824
sI5436
I4825
sI5437
I4826
sI5438
I4827
sI5439
I4828
sI5440
I4829
sI5442
I4830
sI5445
I4831
sI5446
I4832
sI5447
I4833
sI5448
I4834
sI5449
I4835
sI5452
I4836
sI5454
I4837
sI5455
I4838
sI5456
I4839
sI5457
I4840
sI5459
I4841
sI5460
I4842
sI5461
I4843
sI5462
I4844
sI5463
I4845
sI5465
I4846
sI5466
I4847
sI5467
I4848
sI5468
I4849
sI5469
I4850
sI5470
I4851
sI5471
I4852
sI5472
I4853
sI5473
I4854
sI5474
I4855
sI5475
I4856
sI5476
I4857
sI5477
I4858
sI5478
I4859
sI5479
I4860
sI5480
I4861
sI5481
I4862
sI5482
I4863
sI5483
I4864
sI5484
I4865
sI5485
I4866
sI5486
I4867
sI5487
I4868
sI5488
I4869
sI5489
I4870
sI5490
I4871
sI5491
I4872
sI5494
I4873
sI5495
I4874
sI5496
I4875
sI5497
I4876
sI5499
I4877
sI5500
I4878
sI5501
I4879
sI5503
I4880
sI5504
I4881
sI5505
I4882
sI5506
I4883
sI5507
I4884
sI5508
I4885
sI5509
I4886
sI5510
I4887
sI5511
I4888
sI5512
I4889
sI5513
I4890
sI5514
I4891
sI5515
I4892
sI5516
I4893
sI5517
I4894
sI5518
I4895
sI5519
I4896
sI5520
I4897
sI5521
I4898
sI5522
I4899
sI5523
I4900
sI5524
I4901
sI5525
I4902
sI5526
I4903
sI5527
I4904
sI5528
I4905
sI5529
I4906
sI5530
I4907
sI5531
I4908
sI5532
I4909
sI5533
I4910
sI5534
I4911
sI5535
I4912
sI5536
I4913
sI5537
I4914
sI5539
I4915
sI5540
I4916
sI5541
I4917
sI5542
I4918
sI5543
I4919
sI5544
I4920
sI5545
I4921
sI5548
I4922
sI5549
I4923
sI5550
I4924
sI5551
I4925
sI5552
I4926
sI5553
I4927
sI5554
I4928
sI5555
I4929
sI5558
I4930
sI5559
I4931
sI5561
I4932
sI5562
I4933
sI5563
I4934
sI5564
I4935
sI5565
I4936
sI5566
I4937
sI5567
I4938
sI5568
I4939
sI5569
I4940
sI5570
I4941
sI5571
I4942
sI5572
I4943
sI5573
I4944
sI5576
I4945
sI5577
I4946
sI5578
I4947
sI5579
I4948
sI5580
I4949
sI5581
I4950
sI5582
I4951
sI5583
I4952
sI5584
I4953
sI5587
I4954
sI5588
I4955
sI5589
I4956
sI5590
I4957
sI5591
I4958
sI5592
I4959
sI5594
I4960
sI5595
I4961
sI5596
I4962
sI5598
I4963
sI5599
I4964
sI5600
I4965
sI5601
I4966
sI5602
I4967
sI5603
I4968
sI5604
I4969
sI5605
I4970
sI5606
I4971
sI5607
I4972
sI5608
I4973
sI5609
I4974
sI5610
I4975
sI5611
I4976
sI5612
I4977
sI5613
I4978
sI5614
I4979
sI5615
I4980
sI5616
I4981
sI5617
I4982
sI5620
I4983
sI5622
I4984
sI5623
I4985
sI5624
I4986
sI5625
I4987
sI5626
I4988
sI5627
I4989
sI5628
I4990
sI5629
I4991
sI5630
I4992
sI5631
I4993
sI5633
I4994
sI5635
I4995
sI5636
I4996
sI5637
I4997
sI5638
I4998
sI5639
I4999
sI5640
I5000
sI5643
I5001
sI5644
I5002
sI5645
I5003
sI5646
I5004
sI5647
I5005
sI5648
I5006
sI5649
I5007
sI5650
I5008
sI5651
I5009
sI5652
I5010
sI5653
I5011
sI5655
I5012
sI5656
I5013
sI5657
I5014
sI5658
I5015
sI5659
I5016
sI5660
I5017
sI5661
I5018
sI5662
I5019
sI5663
I5020
sI5664
I5021
sI5665
I5022
sI5666
I5023
sI5667
I5024
sI5668
I5025
sI5669
I5026
sI5670
I5027
sI5671
I5028
sI5673
I5029
sI5674
I5030
sI5675
I5031
sI5676
I5032
sI5678
I5033
sI5679
I5034
sI5680
I5035
sI5682
I5036
sI5683
I5037
sI5684
I5038
sI5685
I5039
sI5686
I5040
sI5687
I5041
sI5688
I5042
sI5689
I5043
sI5690
I5044
sI5691
I5045
sI5692
I5046
sI5693
I5047
sI5694
I5048
sI5695
I5049
sI5696
I5050
sI5697
I5051
sI5698
I5052
sI5702
I5053
sI5703
I5054
sI5704
I5055
sI5705
I5056
sI5706
I5057
sI5707
I5058
sI5708
I5059
sI5709
I5060
sI5710
I5061
sI5711
I5062
sI5712
I5063
sI5713
I5064
sI5714
I5065
sI5717
I5066
sI5718
I5067
sI5720
I5068
sI5721
I5069
sI5722
I5070
sI5726
I5071
sI5729
I5072
sI5730
I5073
sI5731
I5074
sI5732
I5075
sI5733
I5076
sI5735
I5077
sI5737
I5078
sI5738
I5079
sI5739
I5080
sI5740
I5081
sI5741
I5082
sI5743
I5083
sI5744
I5084
sI5745
I5085
sI5746
I5086
sI5747
I5087
sI5748
I5088
sI5749
I5089
sI5750
I5090
sI5751
I5091
sI5752
I5092
sI5753
I5093
sI5754
I5094
sI5755
I5095
sI5756
I5096
sI5757
I5097
sI5760
I5098
sI5761
I5099
sI5763
I5100
sI5764
I5101
sI5765
I5102
sI5766
I5103
sI5767
I5104
sI5768
I5105
sI5769
I5106
sI5770
I5107
sI5771
I5108
sI5772
I5109
sI5773
I5110
sI5774
I5111
sI5775
I5112
sI5776
I5113
sI5778
I5114
sI5780
I5115
sI5781
I5116
sI5782
I5117
sI5783
I5118
sI5784
I5119
sI5785
I5120
sI5786
I5121
sI5787
I5122
sI5788
I5123
sI5789
I5124
sI5790
I5125
sI5792
I5126
sI5793
I5127
sI5794
I5128
sI5796
I5129
sI5797
I5130
sI5798
I5131
sI5799
I5132
sI5800
I5133
sI5801
I5134
sI5802
I5135
sI5803
I5136
sI5804
I5137
sI5805
I5138
sI5806
I5139
sI5807
I5140
sI5808
I5141
sI5809
I5142
sI5810
I5143
sI5811
I5144
sI5812
I5145
sI5813
I5146
sI5814
I5147
sI5815
I5148
sI5816
I5149
sI5817
I5150
sI5818
I5151
sI5819
I5152
sI5820
I5153
sI5821
I5154
sI5822
I5155
sI5823
I5156
sI5824
I5157
sI5827
I5158
sI5828
I5159
sI5829
I5160
sI5830
I5161
sI5832
I5162
sI5833
I5163
sI5834
I5164
sI5835
I5165
sI5836
I5166
sI5837
I5167
sI5838
I5168
sI5839
I5169
sI5840
I5170
sI5841
I5171
sI5842
I5172
sI5844
I5173
sI5846
I5174
sI5848
I5175
sI5850
I5176
sI5852
I5177
sI5853
I5178
sI5854
I5179
sI5855
I5180
sI5856
I5181
sI5857
I5182
sI5859
I5183
sI5860
I5184
sI5861
I5185
sI5862
I5186
sI5863
I5187
sI5864
I5188
sI5866
I5189
sI5868
I5190
sI5871
I5191
sI5872
I5192
sI5873
I5193
sI5874
I5194
sI5875
I5195
sI5876
I5196
sI5877
I5197
sI5878
I5198
sI5880
I5199
sI5882
I5200
sI5883
I5201
sI5884
I5202
sI5885
I5203
sI5886
I5204
sI5887
I5205
sI5888
I5206
sI5889
I5207
sI5890
I5208
sI5891
I5209
sI5892
I5210
sI5895
I5211
sI5896
I5212
sI5897
I5213
sI5899
I5214
sI5902
I5215
sI5903
I5216
sI5907
I5217
sI5908
I5218
sI5909
I5219
sI5910
I5220
sI5911
I5221
sI5913
I5222
sI5914
I5223
sI5915
I5224
sI5916
I5225
sI5917
I5226
sI5919
I5227
sI5920
I5228
sI5921
I5229
sI5922
I5230
sI5923
I5231
sI5924
I5232
sI5925
I5233
sI5926
I5234
sI5927
I5235
sI5928
I5236
sI5930
I5237
sI5931
I5238
sI5932
I5239
sI5933
I5240
sI5934
I5241
sI5935
I5242
sI5936
I5243
sI5937
I5244
sI5938
I5245
sI5939
I5246
sI5940
I5247
sI5941
I5248
sI5942
I5249
sI5943
I5250
sI5944
I5251
sI5945
I5252
sI5946
I5253
sI5947
I5254
sI5949
I5255
sI5950
I5256
sI5952
I5257
sI5955
I5258
sI5956
I5259
sI5958
I5260
sI5959
I5261
sI5960
I5262
sI5961
I5263
sI5962
I5264
sI5963
I5265
sI5964
I5266
sI5965
I5267
sI5966
I5268
sI5967
I5269
sI5969
I5270
sI5970
I5271
sI5971
I5272
sI5972
I5273
sI5973
I5274
sI5977
I5275
sI5978
I5276
sI5980
I5277
sI5981
I5278
sI5982
I5279
sI5983
I5280
sI5984
I5281
sI5985
I5282
sI5986
I5283
sI5987
I5284
sI5988
I5285
sI5989
I5286
sI5990
I5287
sI5991
I5288
sI5992
I5289
sI5993
I5290
sI5994
I5291
sI5995
I5292
sI5997
I5293
sI5998
I5294
sI5999
I5295
sI6000
I5296
sI6001
I5297
sI6002
I5298
sI6003
I5299
sI6004
I5300
sI6005
I5301
sI6006
I5302
sI6007
I5303
sI6009
I5304
sI6010
I5305
sI6013
I5306
sI6014
I5307
sI6015
I5308
sI6016
I5309
sI6017
I5310
sI6018
I5311
sI6019
I5312
sI6020
I5313
sI6021
I5314
sI6022
I5315
sI6023
I5316
sI6024
I5317
sI6025
I5318
sI6026
I5319
sI6027
I5320
sI6028
I5321
sI6029
I5322
sI6030
I5323
sI6031
I5324
sI6032
I5325
sI6033
I5326
sI6034
I5327
sI6035
I5328
sI6036
I5329
sI6037
I5330
sI6038
I5331
sI6039
I5332
sI6041
I5333
sI6042
I5334
sI6043
I5335
sI6044
I5336
sI6045
I5337
sI6046
I5338
sI6047
I5339
sI6048
I5340
sI6049
I5341
sI6050
I5342
sI6051
I5343
sI6052
I5344
sI6053
I5345
sI6054
I5346
sI6055
I5347
sI6056
I5348
sI6057
I5349
sI6058
I5350
sI6059
I5351
sI6060
I5352
sI6061
I5353
sI6062
I5354
sI6063
I5355
sI6064
I5356
sI6066
I5357
sI6067
I5358
sI6068
I5359
sI6069
I5360
sI6070
I5361
sI6071
I5362
sI6072
I5363
sI6073
I5364
sI6074
I5365
sI6075
I5366
sI6077
I5367
sI6078
I5368
sI6079
I5369
sI6080
I5370
sI6081
I5371
sI6082
I5372
sI6083
I5373
sI6088
I5374
sI6089
I5375
sI6090
I5376
sI6091
I5377
sI6092
I5378
sI6093
I5379
sI6094
I5380
sI6096
I5381
sI6097
I5382
sI6098
I5383
sI6100
I5384
sI6101
I5385
sI6105
I5386
sI6106
I5387
sI6107
I5388
sI6108
I5389
sI6109
I5390
sI6110
I5391
sI6111
I5392
sI6112
I5393
sI6113
I5394
sI6114
I5395
sI6116
I5396
sI6118
I5397
sI6119
I5398
sI6120
I5399
sI6121
I5400
sI6123
I5401
sI6124
I5402
sI6126
I5403
sI6127
I5404
sI6128
I5405
sI6129
I5406
sI6130
I5407
sI6132
I5408
sI6133
I5409
sI6134
I5410
sI6135
I5411
sI6139
I5412
sI6141
I5413
sI6142
I5414
sI6143
I5415
sI6144
I5416
sI6145
I5417
sI6146
I5418
sI6147
I5419
sI6148
I5420
sI6149
I5421
sI6150
I5422
sI6151
I5423
sI6152
I5424
sI6153
I5425
sI6155
I5426
sI6156
I5427
sI6157
I5428
sI6158
I5429
sI6160
I5430
sI6161
I5431
sI6162
I5432
sI6164
I5433
sI6165
I5434
sI6166
I5435
sI6168
I5436
sI6169
I5437
sI6170
I5438
sI6174
I5439
sI6175
I5440
sI6176
I5441
sI6177
I5442
sI6178
I5443
sI6179
I5444
sI6180
I5445
sI6181
I5446
sI6182
I5447
sI6183
I5448
sI6184
I5449
sI6185
I5450
sI6186
I5451
sI6187
I5452
sI6188
I5453
sI6190
I5454
sI6191
I5455
sI6192
I5456
sI6193
I5457
sI6196
I5458
sI6197
I5459
sI6198
I5460
sI6199
I5461
sI6200
I5462
sI6201
I5463
sI6202
I5464
sI6203
I5465
sI6204
I5466
sI6205
I5467
sI6206
I5468
sI6207
I5469
sI6208
I5470
sI6212
I5471
sI6213
I5472
sI6214
I5473
sI6215
I5474
sI6216
I5475
sI6217
I5476
sI6218
I5477
sI6219
I5478
sI6220
I5479
sI6221
I5480
sI6222
I5481
sI6223
I5482
sI6224
I5483
sI6225
I5484
sI6226
I5485
sI6227
I5486
sI6228
I5487
sI6229
I5488
sI6230
I5489
sI6232
I5490
sI6235
I5491
sI6236
I5492
sI6239
I5493
sI6240
I5494
sI6241
I5495
sI6242
I5496
sI6243
I5497
sI6244
I5498
sI6245
I5499
sI6246
I5500
sI6247
I5501
sI6248
I5502
sI6251
I5503
sI6252
I5504
sI6253
I5505
sI6254
I5506
sI6255
I5507
sI6257
I5508
sI6258
I5509
sI6259
I5510
sI6261
I5511
sI6262
I5512
sI6263
I5513
sI6264
I5514
sI6265
I5515
sI6266
I5516
sI6267
I5517
sI6269
I5518
sI6270
I5519
sI6271
I5520
sI6272
I5521
sI6273
I5522
sI6274
I5523
sI6275
I5524
sI6276
I5525
sI6278
I5526
sI6279
I5527
sI6280
I5528
sI6281
I5529
sI6282
I5530
sI6286
I5531
sI6287
I5532
sI6288
I5533
sI6291
I5534
sI6292
I5535
sI6293
I5536
sI6294
I5537
sI6295
I5538
sI6296
I5539
sI6297
I5540
sI6298
I5541
sI6299
I5542
sI6301
I5543
sI6302
I5544
sI6304
I5545
sI6305
I5546
sI6306
I5547
sI6307
I5548
sI6311
I5549
sI6312
I5550
sI6313
I5551
sI6314
I5552
sI6315
I5553
sI6316
I5554
sI6317
I5555
sI6319
I5556
sI6320
I5557
sI6321
I5558
sI6323
I5559
sI6324
I5560
sI6325
I5561
sI6326
I5562
sI6327
I5563
sI6328
I5564
sI6330
I5565
sI6331
I5566
sI6332
I5567
sI6333
I5568
sI6334
I5569
sI6337
I5570
sI6339
I5571
sI6340
I5572
sI6344
I5573
sI6346
I5574
sI6347
I5575
sI6348
I5576
sI6349
I5577
sI6350
I5578
sI6351
I5579
sI6355
I5580
sI6356
I5581
sI6359
I5582
sI6360
I5583
sI6366
I5584
sI6367
I5585
sI6371
I5586
sI6374
I5587
sI6375
I5588
sI6376
I5589
sI6377
I5590
sI6378
I5591
sI6379
I5592
sI6380
I5593
sI6381
I5594
sI6383
I5595
sI6387
I5596
sI6388
I5597
sI6389
I5598
sI6391
I5599
sI6392
I5600
sI6393
I5601
sI6394
I5602
sI6395
I5603
sI6396
I5604
sI6397
I5605
sI6398
I5606
sI6399
I5607
sI6400
I5608
sI6406
I5609
sI6407
I5610
sI6408
I5611
sI6409
I5612
sI6410
I5613
sI6411
I5614
sI6412
I5615
sI6413
I5616
sI6414
I5617
sI6415
I5618
sI6416
I5619
sI6417
I5620
sI6421
I5621
sI6422
I5622
sI6423
I5623
sI6424
I5624
sI6426
I5625
sI6427
I5626
sI6428
I5627
sI6429
I5628
sI6430
I5629
sI6431
I5630
sI6432
I5631
sI6435
I5632
sI6436
I5633
sI6437
I5634
sI6439
I5635
sI6440
I5636
sI6441
I5637
sI6442
I5638
sI6443
I5639
sI6444
I5640
sI6445
I5641
sI6446
I5642
sI6447
I5643
sI6448
I5644
sI6450
I5645
sI6451
I5646
sI6452
I5647
sI6453
I5648
sI6454
I5649
sI6455
I5650
sI6456
I5651
sI6457
I5652
sI6458
I5653
sI6459
I5654
sI6460
I5655
sI6461
I5656
sI6462
I5657
sI6464
I5658
sI6466
I5659
sI6467
I5660
sI6468
I5661
sI6469
I5662
sI6470
I5663
sI6471
I5664
sI6472
I5665
sI6474
I5666
sI6475
I5667
sI6477
I5668
sI6478
I5669
sI6479
I5670
sI6480
I5671
sI6481
I5672
sI6483
I5673
sI6484
I5674
sI6485
I5675
sI6486
I5676
sI6487
I5677
sI6488
I5678
sI6489
I5679
sI6490
I5680
sI6491
I5681
sI6492
I5682
sI6493
I5683
sI6494
I5684
sI6495
I5685
sI6496
I5686
sI6497
I5687
sI6498
I5688
sI6500
I5689
sI6501
I5690
sI6502
I5691
sI6503
I5692
sI6504
I5693
sI6505
I5694
sI6506
I5695
sI6507
I5696
sI6508
I5697
sI6509
I5698
sI6510
I5699
sI6511
I5700
sI6513
I5701
sI6514
I5702
sI6515
I5703
sI6516
I5704
sI6517
I5705
sI6518
I5706
sI6519
I5707
sI6520
I5708
sI6521
I5709
sI6522
I5710
sI6523
I5711
sI6524
I5712
sI6525
I5713
sI6526
I5714
sI6527
I5715
sI6528
I5716
sI6529
I5717
sI6530
I5718
sI6532
I5719
sI6533
I5720
sI6534
I5721
sI6535
I5722
sI6536
I5723
sI6537
I5724
sI6538
I5725
sI6539
I5726
sI6541
I5727
sI6542
I5728
sI6543
I5729
sI6544
I5730
sI6545
I5731
sI6546
I5732
sI6547
I5733
sI6548
I5734
sI6550
I5735
sI6551
I5736
sI6552
I5737
sI6553
I5738
sI6554
I5739
sI6555
I5740
sI6560
I5741
sI6561
I5742
sI6563
I5743
sI6565
I5744
sI6566
I5745
sI6567
I5746
sI6568
I5747
sI6570
I5748
sI6571
I5749
sI6572
I5750
sI6573
I5751
sI6574
I5752
sI6575
I5753
sI6576
I5754
sI6577
I5755
sI6578
I5756
sI6579
I5757
sI6580
I5758
sI6581
I5759
sI6582
I5760
sI6583
I5761
sI6584
I5762
sI6585
I5763
sI6586
I5764
sI6587
I5765
sI6588
I5766
sI6589
I5767
sI6590
I5768
sI6592
I5769
sI6594
I5770
sI6595
I5771
sI6596
I5772
sI6598
I5773
sI6599
I5774
sI6600
I5775
sI6601
I5776
sI6602
I5777
sI6603
I5778
sI6604
I5779
sI6605
I5780
sI6606
I5781
sI6607
I5782
sI6608
I5783
sI6609
I5784
sI6611
I5785
sI6612
I5786
sI6613
I5787
sI6614
I5788
sI6615
I5789
sI6616
I5790
sI6617
I5791
sI6618
I5792
sI6619
I5793
sI6620
I5794
sI6621
I5795
sI6622
I5796
sI6623
I5797
sI6624
I5798
sI6625
I5799
sI6626
I5800
sI6627
I5801
sI6628
I5802
sI6630
I5803
sI6632
I5804
sI6633
I5805
sI6634
I5806
sI6635
I5807
sI6636
I5808
sI6638
I5809
sI6639
I5810
sI6641
I5811
sI6643
I5812
sI6644
I5813
sI6645
I5814
sI6646
I5815
sI6647
I5816
sI6648
I5817
sI6649
I5818
sI6650
I5819
sI6651
I5820
sI6652
I5821
sI6653
I5822
sI6654
I5823
sI6655
I5824
sI6656
I5825
sI6657
I5826
sI6658
I5827
sI6660
I5828
sI6661
I5829
sI6663
I5830
sI6665
I5831
sI6666
I5832
sI6668
I5833
sI6670
I5834
sI6671
I5835
sI6672
I5836
sI6673
I5837
sI6674
I5838
sI6675
I5839
sI6676
I5840
sI6677
I5841
sI6678
I5842
sI6679
I5843
sI6680
I5844
sI6681
I5845
sI6682
I5846
sI6683
I5847
sI6684
I5848
sI6685
I5849
sI6686
I5850
sI6687
I5851
sI6688
I5852
sI6689
I5853
sI6690
I5854
sI6691
I5855
sI6692
I5856
sI6695
I5857
sI6696
I5858
sI6697
I5859
sI6698
I5860
sI6699
I5861
sI6700
I5862
sI6701
I5863
sI6702
I5864
sI6703
I5865
sI6705
I5866
sI6706
I5867
sI6707
I5868
sI6709
I5869
sI6710
I5870
sI6711
I5871
sI6712
I5872
sI6713
I5873
sI6714
I5874
sI6715
I5875
sI6717
I5876
sI6718
I5877
sI6719
I5878
sI6720
I5879
sI6721
I5880
sI6723
I5881
sI6724
I5882
sI6725
I5883
sI6726
I5884
sI6727
I5885
sI6728
I5886
sI6729
I5887
sI6730
I5888
sI6731
I5889
sI6732
I5890
sI6734
I5891
sI6735
I5892
sI6736
I5893
sI6737
I5894
sI6738
I5895
sI6739
I5896
sI6744
I5897
sI6745
I5898
sI6746
I5899
sI6747
I5900
sI6749
I5901
sI6751
I5902
sI6752
I5903
sI6753
I5904
sI6755
I5905
sI6756
I5906
sI6757
I5907
sI6758
I5908
sI6759
I5909
sI6760
I5910
sI6761
I5911
sI6762
I5912
sI6764
I5913
sI6765
I5914
sI6766
I5915
sI6767
I5916
sI6768
I5917
sI6769
I5918
sI6770
I5919
sI6771
I5920
sI6772
I5921
sI6773
I5922
sI6774
I5923
sI6775
I5924
sI6776
I5925
sI6777
I5926
sI6778
I5927
sI6779
I5928
sI6780
I5929
sI6781
I5930
sI6782
I5931
sI6783
I5932
sI6784
I5933
sI6787
I5934
sI6788
I5935
sI6789
I5936
sI6790
I5937
sI6791
I5938
sI6793
I5939
sI6794
I5940
sI6795
I5941
sI6797
I5942
sI6798
I5943
sI6800
I5944
sI6801
I5945
sI6802
I5946
sI6803
I5947
sI6804
I5948
sI6805
I5949
sI6806
I5950
sI6807
I5951
sI6808
I5952
sI6809
I5953
sI6810
I5954
sI6811
I5955
sI6812
I5956
sI6813
I5957
sI6815
I5958
sI6816
I5959
sI6818
I5960
sI6819
I5961
sI6821
I5962
sI6822
I5963
sI6824
I5964
sI6826
I5965
sI6828
I5966
sI6829
I5967
sI6832
I5968
sI6833
I5969
sI6834
I5970
sI6835
I5971
sI6836
I5972
sI6837
I5973
sI6840
I5974
sI6841
I5975
sI6842
I5976
sI6843
I5977
sI6844
I5978
sI6845
I5979
sI6846
I5980
sI6847
I5981
sI6848
I5982
sI6850
I5983
sI6852
I5984
sI6854
I5985
sI6855
I5986
sI6856
I5987
sI6858
I5988
sI6859
I5989
sI6860
I5990
sI6861
I5991
sI6862
I5992
sI6863
I5993
sI6864
I5994
sI6865
I5995
sI6866
I5996
sI6867
I5997
sI6869
I5998
sI6870
I5999
sI6871
I6000
sI6873
I6001
sI6875
I6002
sI6876
I6003
sI6877
I6004
sI6878
I6005
sI6880
I6006
sI6881
I6007
sI6883
I6008
sI6884
I6009
sI6885
I6010
sI6886
I6011
sI6889
I6012
sI6890
I6013
sI6892
I6014
sI6895
I6015
sI6896
I6016
sI6897
I6017
sI6899
I6018
sI6900
I6019
sI6901
I6020
sI6902
I6021
sI6903
I6022
sI6904
I6023
sI6905
I6024
sI6906
I6025
sI6907
I6026
sI6908
I6027
sI6909
I6028
sI6910
I6029
sI6911
I6030
sI6912
I6031
sI6913
I6032
sI6914
I6033
sI6915
I6034
sI6916
I6035
sI6917
I6036
sI6918
I6037
sI6920
I6038
sI6921
I6039
sI6922
I6040
sI6923
I6041
sI6924
I6042
sI6926
I6043
sI6927
I6044
sI6928
I6045
sI6929
I6046
sI6930
I6047
sI6933
I6048
sI6934
I6049
sI6935
I6050
sI6936
I6051
sI6938
I6052
sI6940
I6053
sI6941
I6054
sI6942
I6055
sI6943
I6056
sI6945
I6057
sI6946
I6058
sI6947
I6059
sI6948
I6060
sI6949
I6061
sI6950
I6062
sI6951
I6063
sI6953
I6064
sI6954
I6065
sI6955
I6066
sI6958
I6067
sI6959
I6068
sI6960
I6069
sI6961
I6070
sI6962
I6071
sI6963
I6072
sI6965
I6073
sI6967
I6074
sI6968
I6075
sI6969
I6076
sI6971
I6077
sI6972
I6078
sI6974
I6079
sI6975
I6080
sI6976
I6081
sI6978
I6082
sI6979
I6083
sI6980
I6084
sI6981
I6085
sI6982
I6086
sI6983
I6087
sI6984
I6088
sI6985
I6089
sI6986
I6090
sI6987
I6091
sI6990
I6092
sI6991
I6093
sI6993
I6094
sI6994
I6095
sI6995
I6096
sI6996
I6097
sI6997
I6098
sI6998
I6099
sI6999
I6100
sI7000
I6101
sI7001
I6102
sI7002
I6103
sI7003
I6104
sI7004
I6105
sI7005
I6106
sI7006
I6107
sI7007
I6108
sI7008
I6109
sI7009
I6110
sI7010
I6111
sI7011
I6112
sI7012
I6113
sI7013
I6114
sI7014
I6115
sI7015
I6116
sI7016
I6117
sI7017
I6118
sI7018
I6119
sI7019
I6120
sI7020
I6121
sI7021
I6122
sI7022
I6123
sI7023
I6124
sI7024
I6125
sI7025
I6126
sI7026
I6127
sI7027
I6128
sI7028
I6129
sI7029
I6130
sI7030
I6131
sI7031
I6132
sI7032
I6133
sI7033
I6134
sI7034
I6135
sI7035
I6136
sI7036
I6137
sI7037
I6138
sI7038
I6139
sI7040
I6140
sI7041
I6141
sI7042
I6142
sI7043
I6143
sI7044
I6144
sI7045
I6145
sI7046
I6146
sI7047
I6147
sI7048
I6148
sI7049
I6149
sI7050
I6150
sI7051
I6151
sI7052
I6152
sI7053
I6153
sI7054
I6154
sI7055
I6155
sI7056
I6156
sI7057
I6157
sI7059
I6158
sI7060
I6159
sI7061
I6160
sI7062
I6161
sI7063
I6162
sI7064
I6163
sI7065
I6164
sI7070
I6165
sI7071
I6166
sI7072
I6167
sI7073
I6168
sI7074
I6169
sI7079
I6170
sI7080
I6171
sI7082
I6172
sI7084
I6173
sI7085
I6174
sI7086
I6175
sI7087
I6176
sI7088
I6177
sI7089
I6178
sI7090
I6179
sI7092
I6180
sI7094
I6181
sI7095
I6182
sI7096
I6183
sI7098
I6184
sI7099
I6185
sI7100
I6186
sI7101
I6187
sI7103
I6188
sI7104
I6189
sI7106
I6190
sI7107
I6191
sI7108
I6192
sI7109
I6193
sI7110
I6194
sI7111
I6195
sI7112
I6196
sI7113
I6197
sI7114
I6198
sI7115
I6199
sI7116
I6200
sI7117
I6201
sI7118
I6202
sI7119
I6203
sI7120
I6204
sI7121
I6205
sI7122
I6206
sI7123
I6207
sI7124
I6208
sI7125
I6209
sI7126
I6210
sI7127
I6211
sI7128
I6212
sI7129
I6213
sI7130
I6214
sI7131
I6215
sI7132
I6216
sI7133
I6217
sI7134
I6218
sI7135
I6219
sI7136
I6220
sI7137
I6221
sI7138
I6222
sI7139
I6223
sI7140
I6224
sI7142
I6225
sI7143
I6226
sI7144
I6227
sI7145
I6228
sI7146
I6229
sI7149
I6230
sI7150
I6231
sI7151
I6232
sI7153
I6233
sI7154
I6234
sI7155
I6235
sI7156
I6236
sI7157
I6237
sI7158
I6238
sI7159
I6239
sI7160
I6240
sI7161
I6241
sI7162
I6242
sI7163
I6243
sI7164
I6244
sI7165
I6245
sI7166
I6246
sI7167
I6247
sI7168
I6248
sI7170
I6249
sI7171
I6250
sI7172
I6251
sI7173
I6252
sI7174
I6253
sI7175
I6254
sI7176
I6255
sI7177
I6256
sI7178
I6257
sI7179
I6258
sI7180
I6259
sI7181
I6260
sI7183
I6261
sI7184
I6262
sI7185
I6263
sI7186
I6264
sI7187
I6265
sI7188
I6266
sI7189
I6267
sI7190
I6268
sI7191
I6269
sI7192
I6270
sI7193
I6271
sI7194
I6272
sI7195
I6273
sI7197
I6274
sI7198
I6275
sI7199
I6276
sI7201
I6277
sI7203
I6278
sI7204
I6279
sI7205
I6280
sI7206
I6281
sI7210
I6282
sI7211
I6283
sI7212
I6284
sI7214
I6285
sI7215
I6286
sI7217
I6287
sI7218
I6288
sI7219
I6289
sI7220
I6290
sI7221
I6291
sI7222
I6292
sI7223
I6293
sI7225
I6294
sI7226
I6295
sI7227
I6296
sI7228
I6297
sI7229
I6298
sI7230
I6299
sI7231
I6300
sI7232
I6301
sI7233
I6302
sI7234
I6303
sI7235
I6304
sI7236
I6305
sI7237
I6306
sI7238
I6307
sI7239
I6308
sI7240
I6309
sI7241
I6310
sI7243
I6311
sI7245
I6312
sI7246
I6313
sI7250
I6314
sI7251
I6315
sI7252
I6316
sI7253
I6317
sI7254
I6318
sI7255
I6319
sI7257
I6320
sI7260
I6321
sI7262
I6322
sI7265
I6323
sI7266
I6324
sI7267
I6325
sI7268
I6326
sI7269
I6327
sI7270
I6328
sI7271
I6329
sI7273
I6330
sI7276
I6331
sI7277
I6332
sI7278
I6333
sI7279
I6334
sI7280
I6335
sI7281
I6336
sI7282
I6337
sI7283
I6338
sI7284
I6339
sI7285
I6340
sI7286
I6341
sI7287
I6342
sI7289
I6343
sI7290
I6344
sI7291
I6345
sI7292
I6346
sI7293
I6347
sI7294
I6348
sI7295
I6349
sI7296
I6350
sI7297
I6351
sI7298
I6352
sI7299
I6353
sI7300
I6354
sI7301
I6355
sI7302
I6356
sI7304
I6357
sI7305
I6358
sI7306
I6359
sI7309
I6360
sI7310
I6361
sI7315
I6362
sI7316
I6363
sI7317
I6364
sI7318
I6365
sI7319
I6366
sI7320
I6367
sI7321
I6368
sI7323
I6369
sI7326
I6370
sI7327
I6371
sI7329
I6372
sI7330
I6373
sI7332
I6374
sI7333
I6375
sI7335
I6376
sI7336
I6377
sI7337
I6378
sI7341
I6379
sI7342
I6380
sI7343
I6381
sI7344
I6382
sI7345
I6383
sI7347
I6384
sI7348
I6385
sI7349
I6386
sI7350
I6387
sI7351
I6388
sI7352
I6389
sI7353
I6390
sI7354
I6391
sI7355
I6392
sI7357
I6393
sI7359
I6394
sI7360
I6395
sI7362
I6396
sI7363
I6397
sI7365
I6398
sI7371
I6399
sI7372
I6400
sI7373
I6401
sI7374
I6402
sI7376
I6403
sI7377
I6404
sI7378
I6405
sI7379
I6406
sI7380
I6407
sI7381
I6408
sI7382
I6409
sI7383
I6410
sI7386
I6411
sI7387
I6412
sI7389
I6413
sI7390
I6414
sI7391
I6415
sI7392
I6416
sI7393
I6417
sI7394
I6418
sI7397
I6419
sI7400
I6420
sI7401
I6421
sI7402
I6422
sI7403
I6423
sI7404
I6424
sI7405
I6425
sI7407
I6426
sI7409
I6427
sI7413
I6428
sI7414
I6429
sI7415
I6430
sI7416
I6431
sI7417
I6432
sI7418
I6433
sI7419
I6434
sI7420
I6435
sI7421
I6436
sI7422
I6437
sI7423
I6438
sI7424
I6439
sI7425
I6440
sI7426
I6441
sI7427
I6442
sI7428
I6443
sI7429
I6444
sI7430
I6445
sI7431
I6446
sI7434
I6447
sI7436
I6448
sI7439
I6449
sI7440
I6450
sI7441
I6451
sI7442
I6452
sI7443
I6453
sI7444
I6454
sI7445
I6455
sI7446
I6456
sI7447
I6457
sI7448
I6458
sI7449
I6459
sI7450
I6460
sI7451
I6461
sI7452
I6462
sI7453
I6463
sI7454
I6464
sI7455
I6465
sI7456
I6466
sI7457
I6467
sI7458
I6468
sI7459
I6469
sI7461
I6470
sI7462
I6471
sI7465
I6472
sI7466
I6473
sI7467
I6474
sI7468
I6475
sI7469
I6476
sI7470
I6477
sI7471
I6478
sI7472
I6479
sI7473
I6480
sI7474
I6481
sI7476
I6482
sI7477
I6483
sI7478
I6484
sI7480
I6485
sI7481
I6486
sI7482
I6487
sI7483
I6488
sI7484
I6489
sI7485
I6490
sI7486
I6491
sI7487
I6492
sI7490
I6493
sI7491
I6494
sI7492
I6495
sI7493
I6496
sI7494
I6497
sI7495
I6498
sI7497
I6499
sI7498
I6500
sI7501
I6501
sI7502
I6502
sI7503
I6503
sI7505
I6504
sI7506
I6505
sI7508
I6506
sI7509
I6507
sI7510
I6508
sI7511
I6509
sI7512
I6510
sI7513
I6511
sI7514
I6512
sI7515
I6513
sI7517
I6514
sI7518
I6515
sI7520
I6516
sI7522
I6517
sI7523
I6518
sI7524
I6519
sI7525
I6520
sI7527
I6521
sI7528
I6522
sI7529
I6523
sI7531
I6524
sI7533
I6525
sI7534
I6526
sI7535
I6527
sI7536
I6528
sI7537
I6529
sI7538
I6530
sI7540
I6531
sI7544
I6532
sI7545
I6533
sI7546
I6534
sI7549
I6535
sI7550
I6536
sI7553
I6537
sI7554
I6538
sI7557
I6539
sI7561
I6540
sI7563
I6541
sI7564
I6542
sI7565
I6543
sI7567
I6544
sI7569
I6545
sI7570
I6546
sI7571
I6547
sI7572
I6548
sI7574
I6549
sI7576
I6550
sI7577
I6551
sI7578
I6552
sI7579
I6553
sI7580
I6554
sI7581
I6555
sI7583
I6556
sI7585
I6557
sI7586
I6558
sI7587
I6559
sI7588
I6560
sI7590
I6561
sI7593
I6562
sI7594
I6563
sI7595
I6564
sI7597
I6565
sI7598
I6566
sI7599
I6567
sI7600
I6568
sI7601
I6569
sI7602
I6570
sI7604
I6571
sI7605
I6572
sI7608
I6573
sI7609
I6574
sI7610
I6575
sI7611
I6576
sI7613
I6577
sI7614
I6578
sI7615
I6579
sI7616
I6580
sI7617
I6581
sI7618
I6582
sI7619
I6583
sI7620
I6584
sI7623
I6585
sI7624
I6586
sI7625
I6587
sI7626
I6588
sI7629
I6589
sI7630
I6590
sI7632
I6591
sI7634
I6592
sI7636
I6593
sI7637
I6594
sI7638
I6595
sI7639
I6596
sI7642
I6597
sI7644
I6598
sI7645
I6599
sI7646
I6600
sI7647
I6601
sI7648
I6602
sI7649
I6603
sI7650
I6604
sI7651
I6605
sI7652
I6606
sI7653
I6607
sI7658
I6608
sI7659
I6609
sI7660
I6610
sI7661
I6611
sI7662
I6612
sI7663
I6613
sI7664
I6614
sI7665
I6615
sI7666
I6616
sI7668
I6617
sI7669
I6618
sI7670
I6619
sI7672
I6620
sI7673
I6621
sI7675
I6622
sI7676
I6623
sI7677
I6624
sI7678
I6625
sI7679
I6626
sI7682
I6627
sI7683
I6628
sI7684
I6629
sI7685
I6630
sI7686
I6631
sI7687
I6632
sI7688
I6633
sI7690
I6634
sI7691
I6635
sI7694
I6636
sI7695
I6637
sI7696
I6638
sI7697
I6639
sI7698
I6640
sI7699
I6641
sI7701
I6642
sI7703
I6643
sI7704
I6644
sI7705
I6645
sI7706
I6646
sI7707
I6647
sI7708
I6648
sI7715
I6649
sI7716
I6650
sI7717
I6651
sI7719
I6652
sI7720
I6653
sI7721
I6654
sI7724
I6655
sI7726
I6656
sI7727
I6657
sI7728
I6658
sI7729
I6659
sI7730
I6660
sI7732
I6661
sI7733
I6662
sI7734
I6663
sI7735
I6664
sI7736
I6665
sI7737
I6666
sI7738
I6667
sI7740
I6668
sI7741
I6669
sI7742
I6670
sI7743
I6671
sI7744
I6672
sI7745
I6673
sI7747
I6674
sI7750
I6675
sI7751
I6676
sI7752
I6677
sI7753
I6678
sI7754
I6679
sI7755
I6680
sI7756
I6681
sI7757
I6682
sI7758
I6683
sI7759
I6684
sI7760
I6685
sI7761
I6686
sI7762
I6687
sI7763
I6688
sI7765
I6689
sI7766
I6690
sI7767
I6691
sI7768
I6692
sI7769
I6693
sI7770
I6694
sI7771
I6695
sI7772
I6696
sI7773
I6697
sI7774
I6698
sI7775
I6699
sI7777
I6700
sI7778
I6701
sI7779
I6702
sI7780
I6703
sI7781
I6704
sI7782
I6705
sI7783
I6706
sI7788
I6707
sI7789
I6708
sI7790
I6709
sI7791
I6710
sI7792
I6711
sI7795
I6712
sI7796
I6713
sI7797
I6714
sI7799
I6715
sI7800
I6716
sI7801
I6717
sI7802
I6718
sI7803
I6719
sI7804
I6720
sI7805
I6721
sI7806
I6722
sI7808
I6723
sI7809
I6724
sI7810
I6725
sI7812
I6726
sI7813
I6727
sI7814
I6728
sI7815
I6729
sI7818
I6730
sI7819
I6731
sI7821
I6732
sI7822
I6733
sI7826
I6734
sI7827
I6735
sI7828
I6736
sI7829
I6737
sI7830
I6738
sI7831
I6739
sI7832
I6740
sI7833
I6741
sI7834
I6742
sI7835
I6743
sI7836
I6744
sI7837
I6745
sI7839
I6746
sI7840
I6747
sI7841
I6748
sI7842
I6749
sI7843
I6750
sI7844
I6751
sI7845
I6752
sI7848
I6753
sI7849
I6754
sI7850
I6755
sI7851
I6756
sI7852
I6757
sI7853
I6758
sI7854
I6759
sI7855
I6760
sI7856
I6761
sI7857
I6762
sI7860
I6763
sI7861
I6764
sI7862
I6765
sI7863
I6766
sI7864
I6767
sI7865
I6768
sI7866
I6769
sI7867
I6770
sI7868
I6771
sI7869
I6772
sI7870
I6773
sI7871
I6774
sI7873
I6775
sI7874
I6776
sI7875
I6777
sI7877
I6778
sI7878
I6779
sI7879
I6780
sI7881
I6781
sI7882
I6782
sI7883
I6783
sI7884
I6784
sI7885
I6785
sI7886
I6786
sI7887
I6787
sI7888
I6788
sI7889
I6789
sI7890
I6790
sI7891
I6791
sI7892
I6792
sI7893
I6793
sI7894
I6794
sI7899
I6795
sI7900
I6796
sI7901
I6797
sI7902
I6798
sI7903
I6799
sI7904
I6800
sI7905
I6801
sI7906
I6802
sI7907
I6803
sI7908
I6804
sI7909
I6805
sI7910
I6806
sI7911
I6807
sI7912
I6808
sI7913
I6809
sI7914
I6810
sI7915
I6811
sI7916
I6812
sI7919
I6813
sI7920
I6814
sI7921
I6815
sI7922
I6816
sI7923
I6817
sI7924
I6818
sI7925
I6819
sI7927
I6820
sI7928
I6821
sI7929
I6822
sI7930
I6823
sI7931
I6824
sI7932
I6825
sI7933
I6826
sI7934
I6827
sI7935
I6828
sI7937
I6829
sI7938
I6830
sI7939
I6831
sI7940
I6832
sI7941
I6833
sI7942
I6834
sI7944
I6835
sI7945
I6836
sI7946
I6837
sI7948
I6838
sI7949
I6839
sI7950
I6840
sI7952
I6841
sI7953
I6842
sI7954
I6843
sI7955
I6844
sI7956
I6845
sI7957
I6846
sI7959
I6847
sI7960
I6848
sI7961
I6849
sI7964
I6850
sI7965
I6851
sI7966
I6852
sI7967
I6853
sI7968
I6854
sI7969
I6855
sI7970
I6856
sI7972
I6857
sI7973
I6858
sI7974
I6859
sI7975
I6860
sI7976
I6861
sI7978
I6862
sI7979
I6863
sI7980
I6864
sI7981
I6865
sI7982
I6866
sI7985
I6867
sI7986
I6868
sI7991
I6869
sI7992
I6870
sI7993
I6871
sI7994
I6872
sI7995
I6873
sI7996
I6874
sI7998
I6875
sI7999
I6876
sI8000
I6877
sI8001
I6878
sI8002
I6879
sI8005
I6880
sI8006
I6881
sI8007
I6882
sI8009
I6883
sI8010
I6884
sI8011
I6885
sI8012
I6886
sI8013
I6887
sI8014
I6888
sI8015
I6889
sI8019
I6890
sI8020
I6891
sI8021
I6892
sI8023
I6893
sI8024
I6894
sI8025
I6895
sI8027
I6896
sI8028
I6897
sI8033
I6898
sI8035
I6899
sI8036
I6900
sI8037
I6901
sI8038
I6902
sI8040
I6903
sI8041
I6904
sI8042
I6905
sI8043
I6906
sI8044
I6907
sI8045
I6908
sI8046
I6909
sI8047
I6910
sI8048
I6911
sI8049
I6912
sI8050
I6913
sI8051
I6914
sI8052
I6915
sI8053
I6916
sI8054
I6917
sI8055
I6918
sI8056
I6919
sI8057
I6920
sI8058
I6921
sI8060
I6922
sI8061
I6923
sI8062
I6924
sI8063
I6925
sI8064
I6926
sI8065
I6927
sI8066
I6928
sI8068
I6929
sI8069
I6930
sI8070
I6931
sI8071
I6932
sI8072
I6933
sI8073
I6934
sI8074
I6935
sI8075
I6936
sI8076
I6937
sI8077
I6938
sI8079
I6939
sI8080
I6940
sI8081
I6941
sI8083
I6942
sI8084
I6943
sI8085
I6944
sI8086
I6945
sI8087
I6946
sI8088
I6947
sI8089
I6948
sI8090
I6949
sI8091
I6950
sI8092
I6951
sI8093
I6952
sI8094
I6953
sI8095
I6954
sI8096
I6955
sI8097
I6956
sI8098
I6957
sI8099
I6958
sI8100
I6959
sI8101
I6960
sI8102
I6961
sI8103
I6962
sI8104
I6963
sI8105
I6964
sI8106
I6965
sI8107
I6966
sI8108
I6967
sI8109
I6968
sI8110
I6969
sI8111
I6970
sI8112
I6971
sI8114
I6972
sI8115
I6973
sI8118
I6974
sI8119
I6975
sI8120
I6976
sI8121
I6977
sI8122
I6978
sI8124
I6979
sI8126
I6980
sI8128
I6981
sI8130
I6982
sI8131
I6983
sI8132
I6984
sI8133
I6985
sI8134
I6986
sI8135
I6987
sI8136
I6988
sI8137
I6989
sI8138
I6990
sI8139
I6991
sI8140
I6992
sI8141
I6993
sI8142
I6994
sI8144
I6995
sI8145
I6996
sI8146
I6997
sI8147
I6998
sI8148
I6999
sI8149
I7000
sI8150
I7001
sI8152
I7002
sI8153
I7003
sI8155
I7004
sI8156
I7005
sI8157
I7006
sI8158
I7007
sI8159
I7008
sI8161
I7009
sI8162
I7010
sI8163
I7011
sI8165
I7012
sI8166
I7013
sI8167
I7014
sI8168
I7015
sI8169
I7016
sI8170
I7017
sI8171
I7018
sI8172
I7019
sI8173
I7020
sI8174
I7021
sI8175
I7022
sI8177
I7023
sI8178
I7024
sI8179
I7025
sI8180
I7026
sI8181
I7027
sI8182
I7028
sI8183
I7029
sI8184
I7030
sI8186
I7031
sI8187
I7032
sI8189
I7033
sI8190
I7034
sI8192
I7035
sI8193
I7036
sI8194
I7037
sI8195
I7038
sI8196
I7039
sI8197
I7040
sI8198
I7041
sI8199
I7042
sI8202
I7043
sI8203
I7044
sI8204
I7045
sI8205
I7046
sI8206
I7047
sI8209
I7048
sI8211
I7049
sI8212
I7050
sI8213
I7051
sI8214
I7052
sI8215
I7053
sI8216
I7054
sI8219
I7055
sI8221
I7056
sI8222
I7057
sI8224
I7058
sI8225
I7059
sI8226
I7060
sI8227
I7061
sI8229
I7062
sI8231
I7063
sI8232
I7064
sI8233
I7065
sI8235
I7066
sI8236
I7067
sI8237
I7068
sI8238
I7069
sI8241
I7070
sI8242
I7071
sI8243
I7072
sI8244
I7073
sI8245
I7074
sI8246
I7075
sI8248
I7076
sI8249
I7077
sI8251
I7078
sI8252
I7079
sI8253
I7080
sI8254
I7081
sI8255
I7082
sI8256
I7083
sI8260
I7084
sI8261
I7085
sI8262
I7086
sI8263
I7087
sI8264
I7088
sI8265
I7089
sI8266
I7090
sI8270
I7091
sI8271
I7092
sI8272
I7093
sI8273
I7094
sI8274
I7095
sI8275
I7096
sI8276
I7097
sI8277
I7098
sI8282
I7099
sI8283
I7100
sI8284
I7101
sI8285
I7102
sI8286
I7103
sI8287
I7104
sI8288
I7105
sI8289
I7106
sI8290
I7107
sI8291
I7108
sI8292
I7109
sI8293
I7110
sI8294
I7111
sI8295
I7112
sI8296
I7113
sI8297
I7114
s.