(dp0
I0
I3
sI1
I4
sI2
I5
sI3
I6
sI4
I7
sI5
I8
sI6
I9
sI7
I10
sI8
I11
sI9
I12
sI10
I13
sI11
I14
sI12
I15
sI13
I16
sI14
I17
sI15
I18
sI16
I19
sI17
I20
sI18
I21
sI19
I22
sI20
I23
sI21
I24
sI22
I25
sI23
I26
sI24
I27
sI25
I28
sI26
I29
sI27
I30
sI28
I31
sI29
I32
sI30
I33
sI31
I34
sI32
I35
sI33
I36
sI34
I37
sI35
I38
sI36
I39
sI37
I40
sI38
I41
sI39
I42
sI40
I43
sI41
I44
sI42
I45
sI43
I46
sI44
I47
sI45
I48
sI46
I49
sI47
I50
sI48
I51
sI49
I52
sI50
I53
sI51
I54
sI52
I55
sI53
I56
sI54
I57
sI55
I58
sI56
I59
sI57
I60
sI58
I61
sI59
I62
sI60
I63
sI61
I64
sI62
I65
sI63
I66
sI64
I67
sI65
I68
sI66
I71
sI67
I72
sI68
I73
sI69
I74
sI70
I75
sI71
I76
sI72
I77
sI73
I78
sI74
I79
sI75
I80
sI76
I81
sI77
I82
sI78
I83
sI79
I84
sI80
I85
sI81
I86
sI82
I87
sI83
I88
sI84
I89
sI85
I90
sI86
I91
sI87
I92
sI88
I93
sI89
I94
sI90
I95
sI91
I96
sI92
I98
sI93
I99
sI94
I100
sI95
I101
sI96
I102
sI97
I103
sI98
I104
sI99
I105
sI100
I106
sI101
I107
sI102
I108
sI103
I109
sI104
I110
sI105
I111
sI106
I112
sI107
I113
sI108
I114
sI109
I115
sI110
I116
sI111
I117
sI112
I118
sI113
I119
sI114
I120
sI115
I121
sI116
I122
sI117
I123
sI118
I124
sI119
I125
sI120
I126
sI121
I127
sI122
I128
sI123
I129
sI124
I130
sI125
I132
sI126
I133
sI127
I134
sI128
I135
sI129
I136
sI130
I137
sI131
I138
sI132
I139
sI133
I140
sI134
I141
sI135
I142
sI136
I143
sI137
I144
sI138
I145
sI139
I146
sI140
I147
sI141
I149
sI142
I150
sI143
I151
sI144
I152
sI145
I153
sI146
I154
sI147
I155
sI148
I156
sI149
I157
sI150
I158
sI151
I159
sI152
I160
sI153
I161
sI154
I162
sI155
I163
sI156
I164
sI157
I165
sI158
I166
sI159
I167
sI160
I168
sI161
I169
sI162
I171
sI163
I172
sI164
I173
sI165
I174
sI166
I175
sI167
I176
sI168
I177
sI169
I178
sI170
I179
sI171
I180
sI172
I181
sI173
I182
sI174
I183
sI175
I185
sI176
I187
sI177
I188
sI178
I189
sI179
I190
sI180
I191
sI181
I192
sI182
I193
sI183
I194
sI184
I195
sI185
I196
sI186
I197
sI187
I198
sI188
I199
sI189
I200
sI190
I201
sI191
I202
sI192
I203
sI193
I204
sI194
I205
sI195
I206
sI196
I207
sI197
I208
sI198
I209
sI199
I210
sI200
I211
sI201
I212
sI202
I213
sI203
I214
sI204
I215
sI205
I216
sI206
I217
sI207
I218
sI208
I219
sI209
I221
sI210
I222
sI211
I223
sI212
I224
sI213
I225
sI214
I226
sI215
I227
sI216
I228
sI217
I230
sI218
I231
sI219
I232
sI220
I233
sI221
I234
sI222
I235
sI223
I236
sI224
I237
sI225
I238
sI226
I239
sI227
I240
sI228
I241
sI229
I242
sI230
I243
sI231
I244
sI232
I245
sI233
I246
sI234
I247
sI235
I248
sI236
I249
sI237
I250
sI238
I251
sI239
I252
sI240
I253
sI241
I254
sI242
I255
sI243
I256
sI244
I257
sI245
I258
sI246
I259
sI247
I260
sI248
I261
sI249
I263
sI250
I264
sI251
I265
sI252
I266
sI253
I267
sI254
I268
sI255
I269
sI256
I270
sI257
I271
sI258
I273
sI259
I274
sI260
I275
sI261
I276
sI262
I277
sI263
I280
sI264
I282
sI265
I283
sI266
I284
sI267
I285
sI268
I286
sI269
I287
sI270
I288
sI271
I289
sI272
I290
sI273
I291
sI274
I292
sI275
I293
sI276
I294
sI277
I295
sI278
I296
sI279
I297
sI280
I298
sI281
I299
sI282
I300
sI283
I301
sI284
I302
sI285
I303
sI286
I304
sI287
I305
sI288
I306
sI289
I307
sI290
I308
sI291
I309
sI292
I310
sI293
I311
sI294
I312
sI295
I313
sI296
I314
sI297
I315
sI298
I316
sI299
I317
sI300
I318
sI301
I319
sI302
I320
sI303
I321
sI304
I322
sI305
I323
sI306
I324
sI307
I325
sI308
I326
sI309
I327
sI310
I328
sI311
I329
sI312
I330
sI313
I331
sI314
I332
sI315
I333
sI316
I334
sI317
I335
sI318
I336
sI319
I337
sI320
I338
sI321
I339
sI322
I340
sI323
I341
sI324
I342
sI325
I343
sI326
I344
sI327
I345
sI328
I346
sI329
I347
sI330
I348
sI331
I349
sI332
I350
sI333
I351
sI334
I352
sI335
I353
sI336
I355
sI337
I356
sI338
I357
sI339
I358
sI340
I359
sI341
I362
sI342
I363
sI343
I364
sI344
I365
sI345
I366
sI346
I367
sI347
I368
sI348
I369
sI349
I370
sI350
I371
sI351
I372
sI352
I373
sI353
I374
sI354
I375
sI355
I376
sI356
I377
sI357
I378
sI358
I379
sI359
I381
sI360
I382
sI361
I383
sI362
I384
sI363
I386
sI364
I387
sI365
I388
sI366
I389
sI367
I390
sI368
I391
sI369
I392
sI370
I393
sI371
I394
sI372
I395
sI373
I396
sI374
I397
sI375
I398
sI376
I399
sI377
I400
sI378
I401
sI379
I402
sI380
I403
sI381
I404
sI382
I405
sI383
I406
sI384
I407
sI385
I408
sI386
I409
sI387
I410
sI388
I411
sI389
I412
sI390
I413
sI391
I414
sI392
I415
sI393
I416
sI394
I417
sI395
I418
sI396
I419
sI397
I421
sI398
I422
sI399
I423
sI400
I424
sI401
I425
sI402
I426
sI403
I427
sI404
I428
sI405
I429
sI406
I430
sI407
I431
sI408
I432
sI409
I433
sI410
I434
sI411
I435
sI412
I436
sI413
I437
sI414
I438
sI415
I439
sI416
I440
sI417
I441
sI418
I443
sI419
I444
sI420
I445
sI421
I446
sI422
I447
sI423
I448
sI424
I449
sI425
I450
sI426
I451
sI427
I453
sI428
I454
sI429
I455
sI430
I456
sI431
I457
sI432
I458
sI433
I460
sI434
I461
sI435
I462
sI436
I463
sI437
I465
sI438
I467
sI439
I468
sI440
I469
sI441
I472
sI442
I473
sI443
I476
sI444
I477
sI445
I479
sI446
I480
sI447
I481
sI448
I486
sI449
I488
sI450
I489
sI451
I490
sI452
I492
sI453
I493
sI454
I494
sI455
I495
sI456
I497
sI457
I498
sI458
I499
sI459
I501
sI460
I502
sI461
I504
sI462
I506
sI463
I507
sI464
I509
sI465
I511
sI466
I513
sI467
I514
sI468
I515
sI469
I516
sI470
I517
sI471
I519
sI472
I520
sI473
I521
sI474
I522
sI475
I523
sI476
I524
sI477
I525
sI478
I527
sI479
I528
sI480
I529
sI481
I530
sI482
I531
sI483
I532
sI484
I534
sI485
I536
sI486
I538
sI487
I539
sI488
I540
sI489
I541
sI490
I542
sI491
I543
sI492
I544
sI493
I545
sI494
I546
sI495
I547
sI496
I548
sI497
I549
sI498
I550
sI499
I551
sI500
I552
sI501
I553
sI502
I554
sI503
I555
sI504
I556
sI505
I557
sI506
I558
sI507
I559
sI508
I560
sI509
I561
sI510
I562
sI511
I563
sI512
I564
sI513
I565
sI514
I566
sI515
I567
sI516
I568
sI517
I569
sI518
I570
sI519
I571
sI520
I572
sI521
I573
sI522
I574
sI523
I575
sI524
I576
sI525
I577
sI526
I578
sI527
I579
sI528
I580
sI529
I581
sI530
I582
sI531
I583
sI532
I584
sI533
I585
sI534
I586
sI535
I587
sI536
I588
sI537
I589
sI538
I590
sI539
I591
sI540
I592
sI541
I593
sI542
I594
sI543
I595
sI544
I596
sI545
I597
sI546
I598
sI547
I599
sI548
I600
sI549
I601
sI550
I602
sI551
I604
sI552
I605
sI553
I606
sI554
I607
sI555
I608
sI556
I609
sI557
I610
sI558
I611
sI559
I612
sI560
I613
sI561
I614
sI562
I615
sI563
I616
sI564
I617
sI565
I618
sI566
I619
sI567
I620
sI568
I621
sI569
I622
sI570
I624
sI571
I625
sI572
I626
sI573
I627
sI574
I628
sI575
I631
sI576
I632
sI577
I633
sI578
I634
sI579
I635
sI580
I636
sI581
I637
sI582
I638
sI583
I639
sI584
I640
sI585
I641
sI586
I642
sI587
I643
sI588
I644
sI589
I645
sI590
I646
sI591
I647
sI592
I648
sI593
I649
sI594
I650
sI595
I651
sI596
I652
sI597
I653
sI598
I654
sI599
I655
sI600
I656
sI601
I657
sI602
I658
sI603
I659
sI604
I661
sI605
I662
sI606
I663
sI607
I664
sI608
I665
sI609
I666
sI610
I667
sI611
I668
sI612
I669
sI613
I670
sI614
I672
sI615
I673
sI616
I674
sI617
I675
sI618
I676
sI619
I677
sI620
I678
sI621
I679
sI622
I681
sI623
I682
sI624
I683
sI625
I684
sI626
I686
sI627
I687
sI628
I688
sI629
I689
sI630
I690
sI631
I691
sI632
I692
sI633
I693
sI634
I694
sI635
I695
sI636
I696
sI637
I697
sI638
I698
sI639
I699
sI640
I700
sI641
I701
sI642
I703
sI643
I704
sI644
I705
sI645
I706
sI646
I707
sI647
I708
sI648
I709
sI649
I710
sI650
I711
sI651
I712
sI652
I713
sI653
I714
sI654
I715
sI655
I716
sI656
I717
sI657
I718
sI658
I719
sI659
I720
sI660
I721
sI661
I722
sI662
I723
sI663
I724
sI664
I725
sI665
I726
sI666
I727
sI667
I728
sI668
I729
sI669
I730
sI670
I731
sI671
I732
sI672
I733
sI673
I734
sI674
I735
sI675
I736
sI676
I737
sI677
I738
sI678
I739
sI679
I741
sI680
I742
sI681
I743
sI682
I744
sI683
I745
sI684
I746
sI685
I748
sI686
I749
sI687
I750
sI688
I751
sI689
I752
sI690
I753
sI691
I754
sI692
I755
sI693
I756
sI694
I758
sI695
I759
sI696
I760
sI697
I761
sI698
I762
sI699
I763
sI700
I764
sI701
I765
sI702
I766
sI703
I767
sI704
I768
sI705
I769
sI706
I770
sI707
I771
sI708
I772
sI709
I773
sI710
I774
sI711
I775
sI712
I776
sI713
I778
sI714
I779
sI715
I780
sI716
I781
sI717
I782
sI718
I783
sI719
I784
sI720
I785
sI721
I786
sI722
I787
sI723
I788
sI724
I789
sI725
I791
sI726
I792
sI727
I793
sI728
I794
sI729
I795
sI730
I796
sI731
I797
sI732
I798
sI733
I799
sI734
I800
sI735
I801
sI736
I802
sI737
I803
sI738
I804
sI739
I805
sI740
I806
sI741
I807
sI742
I808
sI743
I810
sI744
I811
sI745
I812
sI746
I813
sI747
I814
sI748
I815
sI749
I816
sI750
I817
sI751
I818
sI752
I819
sI753
I820
sI754
I821
sI755
I822
sI756
I823
sI757
I824
sI758
I825
sI759
I826
sI760
I827
sI761
I829
sI762
I830
sI763
I831
sI764
I832
sI765
I835
sI766
I836
sI767
I837
sI768
I838
sI769
I839
sI770
I840
sI771
I841
sI772
I842
sI773
I843
sI774
I844
sI775
I845
sI776
I847
sI777
I848
sI778
I849
sI779
I850
sI780
I851
sI781
I852
sI782
I853
sI783
I854
sI784
I855
sI785
I856
sI786
I857
sI787
I859
sI788
I860
sI789
I861
sI790
I862
sI791
I863
sI792
I864
sI793
I865
sI794
I866
sI795
I867
sI796
I868
sI797
I869
sI798
I870
sI799
I871
sI800
I872
sI801
I873
sI802
I874
sI803
I875
sI804
I876
sI805
I877
sI806
I878
sI807
I879
sI808
I880
sI809
I881
sI810
I882
sI811
I883
sI812
I885
sI813
I886
sI814
I887
sI815
I888
sI816
I889
sI817
I890
sI818
I891
sI819
I892
sI820
I893
sI821
I895
sI822
I896
sI823
I897
sI824
I898
sI825
I899
sI826
I900
sI827
I902
sI828
I903
sI829
I904
sI830
I905
sI831
I906
sI832
I907
sI833
I908
sI834
I909
sI835
I910
sI836
I911
sI837
I912
sI838
I913
sI839
I914
sI840
I915
sI841
I916
sI842
I917
sI843
I918
sI844
I919
sI845
I920
sI846
I921
sI847
I922
sI848
I923
sI849
I924
sI850
I926
sI851
I927
sI852
I928
sI853
I929
sI854
I930
sI855
I931
sI856
I932
sI857
I933
sI858
I934
sI859
I935
sI860
I936
sI861
I937
sI862
I938
sI863
I940
sI864
I941
sI865
I942
sI866
I943
sI867
I944
sI868
I945
sI869
I946
sI870
I947
sI871
I948
sI872
I949
sI873
I950
sI874
I951
sI875
I954
sI876
I955
sI877
I956
sI878
I957
sI879
I958
sI880
I959
sI881
I960
sI882
I961
sI883
I962
sI884
I963
sI885
I964
sI886
I965
sI887
I966
sI888
I967
sI889
I968
sI890
I969
sI891
I970
sI892
I971
sI893
I972
sI894
I973
sI895
I974
sI896
I975
sI897
I976
sI898
I977
sI899
I978
sI900
I979
sI901
I980
sI902
I981
sI903
I982
sI904
I983
sI905
I984
sI906
I985
sI907
I986
sI908
I987
sI909
I988
sI910
I989
sI911
I990
sI912
I991
sI913
I992
sI914
I993
sI915
I994
sI916
I995
sI917
I996
sI918
I998
sI919
I999
sI920
I1000
sI921
I1001
sI922
I1002
sI923
I1003
sI924
I1004
sI925
I1005
sI926
I1006
sI927
I1007
sI928
I1008
sI929
I1009
sI930
I1010
sI931
I1011
sI932
I1012
sI933
I1013
sI934
I1014
sI935
I1016
sI936
I1017
sI937
I1018
sI938
I1019
sI939
I1020
sI940
I1021
sI941
I1022
sI942
I1023
sI943
I1024
sI944
I1025
sI945
I1026
sI946
I1027
sI947
I1028
sI948
I1029
sI949
I1030
sI950
I1031
sI951
I1032
sI952
I1033
sI953
I1034
sI954
I1035
sI955
I1037
sI956
I1038
sI957
I1039
sI958
I1040
sI959
I1041
sI960
I1042
sI961
I1043
sI962
I1044
sI963
I1045
sI964
I1046
sI965
I1047
sI966
I1048
sI967
I1049
sI968
I1050
sI969
I1051
sI970
I1052
sI971
I1053
sI972
I1055
sI973
I1058
sI974
I1059
sI975
I1060
sI976
I1061
sI977
I1062
sI978
I1063
sI979
I1064
sI980
I1065
sI981
I1066
sI982
I1067
sI983
I1068
sI984
I1070
sI985
I1071
sI986
I1072
sI987
I1074
sI988
I1075
sI989
I1077
sI990
I1078
sI991
I1079
sI992
I1080
sI993
I1081
sI994
I1082
sI995
I1083
sI996
I1084
sI997
I1085
sI998
I1086
sI999
I1087
sI1000
I1088
sI1001
I1089
sI1002
I1090
sI1003
I1092
sI1004
I1093
sI1005
I1094
sI1006
I1095
sI1007
I1096
sI1008
I1097
sI1009
I1098
sI1010
I1099
sI1011
I1100
sI1012
I1101
sI1013
I1102
sI1014
I1103
sI1015
I1104
sI1016
I1105
sI1017
I1106
sI1018
I1107
sI1019
I1108
sI1020
I1109
sI1021
I1110
sI1022
I1111
sI1023
I1112
sI1024
I1113
sI1025
I1114
sI1026
I1115
sI1027
I1120
sI1028
I1123
sI1029
I1124
sI1030
I1125
sI1031
I1126
sI1032
I1127
sI1033
I1128
sI1034
I1129
sI1035
I1130
sI1036
I1131
sI1037
I1132
sI1038
I1133
sI1039
I1134
sI1040
I1135
sI1041
I1137
sI1042
I1138
sI1043
I1139
sI1044
I1140
sI1045
I1141
sI1046
I1142
sI1047
I1143
sI1048
I1144
sI1049
I1145
sI1050
I1146
sI1051
I1147
sI1052
I1148
sI1053
I1150
sI1054
I1151
sI1055
I1152
sI1056
I1154
sI1057
I1155
sI1058
I1156
sI1059
I1157
sI1060
I1158
sI1061
I1159
sI1062
I1160
sI1063
I1161
sI1064
I1164
sI1065
I1165
sI1066
I1166
sI1067
I1167
sI1068
I1168
sI1069
I1169
sI1070
I1170
sI1071
I1171
sI1072
I1172
sI1073
I1173
sI1074
I1174
sI1075
I1175
sI1076
I1176
sI1077
I1177
sI1078
I1178
sI1079
I1179
sI1080
I1180
sI1081
I1181
sI1082
I1182
sI1083
I1183
sI1084
I1184
sI1085
I1185
sI1086
I1186
sI1087
I1187
sI1088
I1188
sI1089
I1189
sI1090
I1190
sI1091
I1191
sI1092
I1192
sI1093
I1193
sI1094
I1194
sI1095
I1195
sI1096
I1196
sI1097
I1197
sI1098
I1198
sI1099
I1199
sI1100
I1200
sI1101
I1201
sI1102
I1202
sI1103
I1203
sI1104
I1204
sI1105
I1205
sI1106
I1206
sI1107
I1207
sI1108
I1208
sI1109
I1209
sI1110
I1210
sI1111
I1211
sI1112
I1212
sI1113
I1213
sI1114
I1214
sI1115
I1215
sI1116
I1216
sI1117
I1218
sI1118
I1219
sI1119
I1220
sI1120
I1221
sI1121
I1222
sI1122
I1223
sI1123
I1224
sI1124
I1225
sI1125
I1226
sI1126
I1227
sI1127
I1228
sI1128
I1229
sI1129
I1230
sI1130
I1231
sI1131
I1232
sI1132
I1233
sI1133
I1234
sI1134
I1235
sI1135
I1236
sI1136
I1237
sI1137
I1238
sI1138
I1239
sI1139
I1240
sI1140
I1241
sI1141
I1242
sI1142
I1243
sI1143
I1244
sI1144
I1245
sI1145
I1246
sI1146
I1247
sI1147
I1248
sI1148
I1250
sI1149
I1252
sI1150
I1253
sI1151
I1254
sI1152
I1255
sI1153
I1256
sI1154
I1257
sI1155
I1258
sI1156
I1259
sI1157
I1260
sI1158
I1261
sI1159
I1262
sI1160
I1264
sI1161
I1266
sI1162
I1267
sI1163
I1268
sI1164
I1269
sI1165
I1270
sI1166
I1271
sI1167
I1272
sI1168
I1273
sI1169
I1274
sI1170
I1275
sI1171
I1276
sI1172
I1277
sI1173
I1278
sI1174
I1279
sI1175
I1280
sI1176
I1281
sI1177
I1282
sI1178
I1284
sI1179
I1285
sI1180
I1286
sI1181
I1287
sI1182
I1290
sI1183
I1291
sI1184
I1292
sI1185
I1293
sI1186
I1294
sI1187
I1295
sI1188
I1296
sI1189
I1297
sI1190
I1298
sI1191
I1299
sI1192
I1300
sI1193
I1301
sI1194
I1302
sI1195
I1303
sI1196
I1304
sI1197
I1305
sI1198
I1306
sI1199
I1307
sI1200
I1308
sI1201
I1309
sI1202
I1310
sI1203
I1311
sI1204
I1312
sI1205
I1313
sI1206
I1314
sI1207
I1315
sI1208
I1316
sI1209
I1317
sI1210
I1318
sI1211
I1319
sI1212
I1320
sI1213
I1321
sI1214
I1322
sI1215
I1323
sI1216
I1324
sI1217
I1325
sI1218
I1326
sI1219
I1327
sI1220
I1328
sI1221
I1329
sI1222
I1330
sI1223
I1331
sI1224
I1332
sI1225
I1333
sI1226
I1334
sI1227
I1335
sI1228
I1336
sI1229
I1337
sI1230
I1338
sI1231
I1339
sI1232
I1340
sI1233
I1341
sI1234
I1342
sI1235
I1343
sI1236
I1344
sI1237
I1345
sI1238
I1346
sI1239
I1349
sI1240
I1350
sI1241
I1351
sI1242
I1352
sI1243
I1353
sI1244
I1354
sI1245
I1355
sI1246
I1356
sI1247
I1357
sI1248
I1358
sI1249
I1359
sI1250
I1360
sI1251
I1361
sI1252
I1362
sI1253
I1365
sI1254
I1366
sI1255
I1367
sI1256
I1368
sI1257
I1369
sI1258
I1370
sI1259
I1372
sI1260
I1373
sI1261
I1374
sI1262
I1375
sI1263
I1376
sI1264
I1377
sI1265
I1378
sI1266
I1379
sI1267
I1380
sI1268
I1381
sI1269
I1382
sI1270
I1383
sI1271
I1384
sI1272
I1385
sI1273
I1386
sI1274
I1387
sI1275
I1388
sI1276
I1389
sI1277
I1390
sI1278
I1391
sI1279
I1392
sI1280
I1393
sI1281
I1394
sI1282
I1395
sI1283
I1396
sI1284
I1397
sI1285
I1398
sI1286
I1399
sI1287
I1400
sI1288
I1401
sI1289
I1402
sI1290
I1403
sI1291
I1404
sI1292
I1405
sI1293
I1406
sI1294
I1407
sI1295
I1408
sI1296
I1409
sI1297
I1410
sI1298
I1411
sI1299
I1412
sI1300
I1413
sI1301
I1416
sI1302
I1418
sI1303
I1419
sI1304
I1420
sI1305
I1421
sI1306
I1422
sI1307
I1423
sI1308
I1424
sI1309
I1425
sI1310
I1426
sI1311
I1427
sI1312
I1428
sI1313
I1429
sI1314
I1430
sI1315
I1431
sI1316
I1432
sI1317
I1433
sI1318
I1434
sI1319
I1435
sI1320
I1436
sI1321
I1437
sI1322
I1438
sI1323
I1439
sI1324
I1440
sI1325
I1441
sI1326
I1442
sI1327
I1443
sI1328
I1444
sI1329
I1445
sI1330
I1446
sI1331
I1447
sI1332
I1448
sI1333
I1449
sI1334
I1450
sI1335
I1451
sI1336
I1452
sI1337
I1453
sI1338
I1454
sI1339
I1455
sI1340
I1456
sI1341
I1457
sI1342
I1458
sI1343
I1459
sI1344
I1460
sI1345
I1461
sI1346
I1462
sI1347
I1463
sI1348
I1464
sI1349
I1465
sI1350
I1466
sI1351
I1467
sI1352
I1468
sI1353
I1469
sI1354
I1470
sI1355
I1471
sI1356
I1472
sI1357
I1473
sI1358
I1474
sI1359
I1476
sI1360
I1478
sI1361
I1480
sI1362
I1481
sI1363
I1482
sI1364
I1483
sI1365
I1484
sI1366
I1485
sI1367
I1486
sI1368
I1487
sI1369
I1488
sI1370
I1489
sI1371
I1490
sI1372
I1492
sI1373
I1493
sI1374
I1494
sI1375
I1495
sI1376
I1496
sI1377
I1497
sI1378
I1498
sI1379
I1499
sI1380
I1500
sI1381
I1501
sI1382
I1502
sI1383
I1503
sI1384
I1504
sI1385
I1505
sI1386
I1506
sI1387
I1507
sI1388
I1509
sI1389
I1510
sI1390
I1511
sI1391
I1512
sI1392
I1513
sI1393
I1514
sI1394
I1515
sI1395
I1516
sI1396
I1517
sI1397
I1518
sI1398
I1519
sI1399
I1520
sI1400
I1521
sI1401
I1522
sI1402
I1523
sI1403
I1524
sI1404
I1525
sI1405
I1526
sI1406
I1527
sI1407
I1528
sI1408
I1529
sI1409
I1530
sI1410
I1531
sI1411
I1532
sI1412
I1533
sI1413
I1534
sI1414
I1535
sI1415
I1536
sI1416
I1537
sI1417
I1538
sI1418
I1539
sI1419
I1540
sI1420
I1541
sI1421
I1542
sI1422
I1543
sI1423
I1545
sI1424
I1546
sI1425
I1547
sI1426
I1548
sI1427
I1549
sI1428
I1550
sI1429
I1551
sI1430
I1552
sI1431
I1553
sI1432
I1554
sI1433
I1555
sI1434
I1556
sI1435
I1557
sI1436
I1558
sI1437
I1559
sI1438
I1560
sI1439
I1561
sI1440
I1563
sI1441
I1564
sI1442
I1565
sI1443
I1566
sI1444
I1568
sI1445
I1569
sI1446
I1570
sI1447
I1571
sI1448
I1572
sI1449
I1573
sI1450
I1574
sI1451
I1575
sI1452
I1576
sI1453
I1578
sI1454
I1579
sI1455
I1580
sI1456
I1581
sI1457
I1582
sI1458
I1583
sI1459
I1584
sI1460
I1585
sI1461
I1587
sI1462
I1588
sI1463
I1589
sI1464
I1590
sI1465
I1591
sI1466
I1592
sI1467
I1593
sI1468
I1594
sI1469
I1595
sI1470
I1596
sI1471
I1597
sI1472
I1599
sI1473
I1600
sI1474
I1601
sI1475
I1602
sI1476
I1603
sI1477
I1604
sI1478
I1605
sI1479
I1606
sI1480
I1607
sI1481
I1608
sI1482
I1609
sI1483
I1610
sI1484
I1611
sI1485
I1612
sI1486
I1613
sI1487
I1614
sI1488
I1615
sI1489
I1616
sI1490
I1617
sI1491
I1618
sI1492
I1619
sI1493
I1620
sI1494
I1621
sI1495
I1622
sI1496
I1623
sI1497
I1625
sI1498
I1626
sI1499
I1627
sI1500
I1628
sI1501
I1629
sI1502
I1630
sI1503
I1631
sI1504
I1632
sI1505
I1633
sI1506
I1634
sI1507
I1635
sI1508
I1636
sI1509
I1637
sI1510
I1638
sI1511
I1639
sI1512
I1641
sI1513
I1642
sI1514
I1643
sI1515
I1644
sI1516
I1645
sI1517
I1646
sI1518
I1647
sI1519
I1648
sI1520
I1649
sI1521
I1650
sI1522
I1651
sI1523
I1652
sI1524
I1653
sI1525
I1654
sI1526
I1655
sI1527
I1656
sI1528
I1657
sI1529
I1658
sI1530
I1659
sI1531
I1660
sI1532
I1661
sI1533
I1662
sI1534
I1663
sI1535
I1664
sI1536
I1665
sI1537
I1666
sI1538
I1667
sI1539
I1668
sI1540
I1669
sI1541
I1670
sI1542
I1671
sI1543
I1672
sI1544
I1674
sI1545
I1675
sI1546
I1676
sI1547
I1677
sI1548
I1678
sI1549
I1679
sI1550
I1680
sI1551
I1681
sI1552
I1682
sI1553
I1683
sI1554
I1684
sI1555
I1685
sI1556
I1686
sI1557
I1687
sI1558
I1688
sI1559
I1689
sI1560
I1690
sI1561
I1691
sI1562
I1692
sI1563
I1693
sI1564
I1694
sI1565
I1695
sI1566
I1696
sI1567
I1697
sI1568
I1698
sI1569
I1699
sI1570
I1700
sI1571
I1701
sI1572
I1703
sI1573
I1704
sI1574
I1705
sI1575
I1706
sI1576
I1707
sI1577
I1708
sI1578
I1709
sI1579
I1710
sI1580
I1711
sI1581
I1712
sI1582
I1713
sI1583
I1714
sI1584
I1715
sI1585
I1716
sI1586
I1717
sI1587
I1718
sI1588
I1719
sI1589
I1720
sI1590
I1721
sI1591
I1722
sI1592
I1723
sI1593
I1724
sI1594
I1725
sI1595
I1726
sI1596
I1728
sI1597
I1729
sI1598
I1730
sI1599
I1731
sI1600
I1732
sI1601
I1733
sI1602
I1734
sI1603
I1735
sI1604
I1736
sI1605
I1737
sI1606
I1738
sI1607
I1739
sI1608
I1740
sI1609
I1741
sI1610
I1742
sI1611
I1743
sI1612
I1744
sI1613
I1745
sI1614
I1746
sI1615
I1747
sI1616
I1748
sI1617
I1749
sI1618
I1751
sI1619
I1752
sI1620
I1753
sI1621
I1754
sI1622
I1755
sI1623
I1756
sI1624
I1757
sI1625
I1758
sI1626
I1759
sI1627
I1760
sI1628
I1761
sI1629
I1762
sI1630
I1763
sI1631
I1764
sI1632
I1765
sI1633
I1766
sI1634
I1767
sI1635
I1768
sI1636
I1769
sI1637
I1770
sI1638
I1771
sI1639
I1772
sI1640
I1773
sI1641
I1774
sI1642
I1775
sI1643
I1777
sI1644
I1778
sI1645
I1780
sI1646
I1781
sI1647
I1782
sI1648
I1783
sI1649
I1784
sI1650
I1785
sI1651
I1787
sI1652
I1788
sI1653
I1789
sI1654
I1790
sI1655
I1791
sI1656
I1792
sI1657
I1793
sI1658
I1794
sI1659
I1795
sI1660
I1796
sI1661
I1797
sI1662
I1798
sI1663
I1799
sI1664
I1800
sI1665
I1802
sI1666
I1803
sI1667
I1804
sI1668
I1805
sI1669
I1806
sI1670
I1807
sI1671
I1808
sI1672
I1809
sI1673
I1810
sI1674
I1811
sI1675
I1812
sI1676
I1813
sI1677
I1814
sI1678
I1816
sI1679
I1819
sI1680
I1820
sI1681
I1821
sI1682
I1822
sI1683
I1823
sI1684
I1825
sI1685
I1826
sI1686
I1827
sI1687
I1828
sI1688
I1829
sI1689
I1830
sI1690
I1831
sI1691
I1832
sI1692
I1833
sI1693
I1834
sI1694
I1835
sI1695
I1836
sI1696
I1837
sI1697
I1838
sI1698
I1839
sI1699
I1840
sI1700
I1841
sI1701
I1842
sI1702
I1844
sI1703
I1845
sI1704
I1846
sI1705
I1847
sI1706
I1848
sI1707
I1849
sI1708
I1852
sI1709
I1853
sI1710
I1855
sI1711
I1856
sI1712
I1857
sI1713
I1858
sI1714
I1859
sI1715
I1860
sI1716
I1861
sI1717
I1862
sI1718
I1863
sI1719
I1864
sI1720
I1865
sI1721
I1866
sI1722
I1867
sI1723
I1868
sI1724
I1869
sI1725
I1870
sI1726
I1871
sI1727
I1872
sI1728
I1873
sI1729
I1874
sI1730
I1875
sI1731
I1876
sI1732
I1879
sI1733
I1880
sI1734
I1881
sI1735
I1882
sI1736
I1883
sI1737
I1884
sI1738
I1885
sI1739
I1886
sI1740
I1887
sI1741
I1888
sI1742
I1889
sI1743
I1890
sI1744
I1891
sI1745
I1892
sI1746
I1893
sI1747
I1894
sI1748
I1895
sI1749
I1896
sI1750
I1897
sI1751
I1899
sI1752
I1900
sI1753
I1901
sI1754
I1902
sI1755
I1903
sI1756
I1905
sI1757
I1906
sI1758
I1907
sI1759
I1908
sI1760
I1909
sI1761
I1911
sI1762
I1912
sI1763
I1913
sI1764
I1914
sI1765
I1915
sI1766
I1916
sI1767
I1917
sI1768
I1918
sI1769
I1919
sI1770
I1920
sI1771
I1921
sI1772
I1922
sI1773
I1923
sI1774
I1924
sI1775
I1925
sI1776
I1926
sI1777
I1927
sI1778
I1928
sI1779
I1929
sI1780
I1930
sI1781
I1931
sI1782
I1932
sI1783
I1933
sI1784
I1934
sI1785
I1935
sI1786
I1937
sI1787
I1938
sI1788
I1939
sI1789
I1940
sI1790
I1941
sI1791
I1943
sI1792
I1944
sI1793
I1945
sI1794
I1946
sI1795
I1947
sI1796
I1948
sI1797
I1950
sI1798
I1951
sI1799
I1952
sI1800
I1953
sI1801
I1955
sI1802
I1956
sI1803
I1958
sI1804
I1959
sI1805
I1960
sI1806
I1961
sI1807
I1962
sI1808
I1963
sI1809
I1964
sI1810
I1965
sI1811
I1966
sI1812
I1967
sI1813
I1968
sI1814
I1969
sI1815
I1970
sI1816
I1971
sI1817
I1972
sI1818
I1973
sI1819
I1975
sI1820
I1976
sI1821
I1977
sI1822
I1978
sI1823
I1979
sI1824
I1980
sI1825
I1981
sI1826
I1982
sI1827
I1983
sI1828
I1984
sI1829
I1985
sI1830
I1986
sI1831
I1987
sI1832
I1988
sI1833
I1989
sI1834
I1990
sI1835
I1991
sI1836
I1992
sI1837
I1993
sI1838
I1994
sI1839
I1995
sI1840
I1996
sI1841
I1997
sI1842
I2000
sI1843
I2001
sI1844
I2002
sI1845
I2003
sI1846
I2004
sI1847
I2005
sI1848
I2007
sI1849
I2008
sI1850
I2009
sI1851
I2010
sI1852
I2011
sI1853
I2012
sI1854
I2013
sI1855
I2014
sI1856
I2015
sI1857
I2016
sI1858
I2017
sI1859
I2018
sI1860
I2019
sI1861
I2020
sI1862
I2021
sI1863
I2023
sI1864
I2024
sI1865
I2025
sI1866
I2026
sI1867
I2027
sI1868
I2028
sI1869
I2029
sI1870
I2030
sI1871
I2031
sI1872
I2032
sI1873
I2033
sI1874
I2034
sI1875
I2035
sI1876
I2036
sI1877
I2037
sI1878
I2038
sI1879
I2040
sI1880
I2041
sI1881
I2042
sI1882
I2044
sI1883
I2045
sI1884
I2047
sI1885
I2049
sI1886
I2050
sI1887
I2051
sI1888
I2052
sI1889
I2053
sI1890
I2054
sI1891
I2055
sI1892
I2056
sI1893
I2057
sI1894
I2058
sI1895
I2059
sI1896
I2060
sI1897
I2061
sI1898
I2062
sI1899
I2063
sI1900
I2064
sI1901
I2065
sI1902
I2066
sI1903
I2067
sI1904
I2068
sI1905
I2069
sI1906
I2070
sI1907
I2071
sI1908
I2072
sI1909
I2073
sI1910
I2076
sI1911
I2077
sI1912
I2079
sI1913
I2081
sI1914
I2082
sI1915
I2083
sI1916
I2084
sI1917
I2085
sI1918
I2086
sI1919
I2087
sI1920
I2088
sI1921
I2089
sI1922
I2090
sI1923
I2091
sI1924
I2092
sI1925
I2093
sI1926
I2094
sI1927
I2095
sI1928
I2096
sI1929
I2097
sI1930
I2099
sI1931
I2100
sI1932
I2101
sI1933
I2102
sI1934
I2103
sI1935
I2104
sI1936
I2105
sI1937
I2106
sI1938
I2108
sI1939
I2109
sI1940
I2110
sI1941
I2111
sI1942
I2112
sI1943
I2113
sI1944
I2114
sI1945
I2115
sI1946
I2116
sI1947
I2117
sI1948
I2118
sI1949
I2119
sI1950
I2120
sI1951
I2121
sI1952
I2125
sI1953
I2126
sI1954
I2127
sI1955
I2128
sI1956
I2129
sI1957
I2130
sI1958
I2131
sI1959
I2132
sI1960
I2133
sI1961
I2134
sI1962
I2135
sI1963
I2136
sI1964
I2137
sI1965
I2138
sI1966
I2139
sI1967
I2141
sI1968
I2142
sI1969
I2143
sI1970
I2144
sI1971
I2145
sI1972
I2146
sI1973
I2147
sI1974
I2148
sI1975
I2149
sI1976
I2150
sI1977
I2151
sI1978
I2152
sI1979
I2153
sI1980
I2155
sI1981
I2156
sI1982
I2157
sI1983
I2159
sI1984
I2160
sI1985
I2161
sI1986
I2163
sI1987
I2164
sI1988
I2165
sI1989
I2167
sI1990
I2168
sI1991
I2169
sI1992
I2170
sI1993
I2171
sI1994
I2172
sI1995
I2173
sI1996
I2174
sI1997
I2175
sI1998
I2176
sI1999
I2177
sI2000
I2178
sI2001
I2179
sI2002
I2180
sI2003
I2181
sI2004
I2182
sI2005
I2183
sI2006
I2184
sI2007
I2185
sI2008
I2186
sI2009
I2187
sI2010
I2188
sI2011
I2189
sI2012
I2190
sI2013
I2191
sI2014
I2192
sI2015
I2193
sI2016
I2194
sI2017
I2195
sI2018
I2196
sI2019
I2197
sI2020
I2198
sI2021
I2199
sI2022
I2200
sI2023
I2201
sI2024
I2202
sI2025
I2203
sI2026
I2204
sI2027
I2205
sI2028
I2206
sI2029
I2209
sI2030
I2210
sI2031
I2211
sI2032
I2212
sI2033
I2213
sI2034
I2214
sI2035
I2215
sI2036
I2216
sI2037
I2217
sI2038
I2218
sI2039
I2219
sI2040
I2221
sI2041
I2222
sI2042
I2223
sI2043
I2224
sI2044
I2225
sI2045
I2226
sI2046
I2227
sI2047
I2228
sI2048
I2229
sI2049
I2230
sI2050
I2231
sI2051
I2232
sI2052
I2233
sI2053
I2234
sI2054
I2235
sI2055
I2236
sI2056
I2237
sI2057
I2238
sI2058
I2239
sI2059
I2240
sI2060
I2241
sI2061
I2242
sI2062
I2243
sI2063
I2244
sI2064
I2246
sI2065
I2247
sI2066
I2249
sI2067
I2250
sI2068
I2251
sI2069
I2252
sI2070
I2253
sI2071
I2254
sI2072
I2255
sI2073
I2256
sI2074
I2257
sI2075
I2258
sI2076
I2259
sI2077
I2260
sI2078
I2261
sI2079
I2262
sI2080
I2264
sI2081
I2265
sI2082
I2266
sI2083
I2267
sI2084
I2268
sI2085
I2269
sI2086
I2270
sI2087
I2272
sI2088
I2273
sI2089
I2274
sI2090
I2276
sI2091
I2277
sI2092
I2278
sI2093
I2280
sI2094
I2281
sI2095
I2282
sI2096
I2283
sI2097
I2285
sI2098
I2286
sI2099
I2287
sI2100
I2288
sI2101
I2289
sI2102
I2290
sI2103
I2291
sI2104
I2292
sI2105
I2293
sI2106
I2294
sI2107
I2295
sI2108
I2296
sI2109
I2297
sI2110
I2298
sI2111
I2299
sI2112
I2300
sI2113
I2301
sI2114
I2302
sI2115
I2304
sI2116
I2305
sI2117
I2306
sI2118
I2307
sI2119
I2308
sI2120
I2309
sI2121
I2310
sI2122
I2311
sI2123
I2312
sI2124
I2313
sI2125
I2314
sI2126
I2315
sI2127
I2316
sI2128
I2317
sI2129
I2318
sI2130
I2319
sI2131
I2320
sI2132
I2321
sI2133
I2322
sI2134
I2323
sI2135
I2324
sI2136
I2325
sI2137
I2326
sI2138
I2328
sI2139
I2329
sI2140
I2330
sI2141
I2331
sI2142
I2332
sI2143
I2333
sI2144
I2334
sI2145
I2335
sI2146
I2336
sI2147
I2337
sI2148
I2338
sI2149
I2339
sI2150
I2340
sI2151
I2341
sI2152
I2342
sI2153
I2343
sI2154
I2344
sI2155
I2345
sI2156
I2346
sI2157
I2348
sI2158
I2349
sI2159
I2350
sI2160
I2351
sI2161
I2352
sI2162
I2353
sI2163
I2354
sI2164
I2355
sI2165
I2356
sI2166
I2357
sI2167
I2359
sI2168
I2360
sI2169
I2361
sI2170
I2362
sI2171
I2363
sI2172
I2364
sI2173
I2365
sI2174
I2366
sI2175
I2367
sI2176
I2368
sI2177
I2369
sI2178
I2370
sI2179
I2371
sI2180
I2372
sI2181
I2373
sI2182
I2374
sI2183
I2375
sI2184
I2376
sI2185
I2378
sI2186
I2379
sI2187
I2380
sI2188
I2381
sI2189
I2382
sI2190
I2384
sI2191
I2385
sI2192
I2386
sI2193
I2387
sI2194
I2388
sI2195
I2389
sI2196
I2390
sI2197
I2391
sI2198
I2392
sI2199
I2393
sI2200
I2394
sI2201
I2395
sI2202
I2396
sI2203
I2397
sI2204
I2398
sI2205
I2399
sI2206
I2400
sI2207
I2401
sI2208
I2402
sI2209
I2403
sI2210
I2404
sI2211
I2405
sI2212
I2406
sI2213
I2407
sI2214
I2409
sI2215
I2410
sI2216
I2411
sI2217
I2412
sI2218
I2413
sI2219
I2414
sI2220
I2415
sI2221
I2416
sI2222
I2417
sI2223
I2418
sI2224
I2419
sI2225
I2420
sI2226
I2422
sI2227
I2423
sI2228
I2424
sI2229
I2425
sI2230
I2426
sI2231
I2427
sI2232
I2428
sI2233
I2429
sI2234
I2433
sI2235
I2434
sI2236
I2435
sI2237
I2437
sI2238
I2438
sI2239
I2439
sI2240
I2440
sI2241
I2441
sI2242
I2442
sI2243
I2443
sI2244
I2444
sI2245
I2445
sI2246
I2446
sI2247
I2447
sI2248
I2448
sI2249
I2449
sI2250
I2450
sI2251
I2451
sI2252
I2452
sI2253
I2453
sI2254
I2454
sI2255
I2455
sI2256
I2456
sI2257
I2457
sI2258
I2458
sI2259
I2459
sI2260
I2460
sI2261
I2461
sI2262
I2462
sI2263
I2463
sI2264
I2464
sI2265
I2465
sI2266
I2466
sI2267
I2467
sI2268
I2469
sI2269
I2470
sI2270
I2471
sI2271
I2472
sI2272
I2473
sI2273
I2474
sI2274
I2475
sI2275
I2476
sI2276
I2477
sI2277
I2478
sI2278
I2479
sI2279
I2480
sI2280
I2481
sI2281
I2482
sI2282
I2484
sI2283
I2485
sI2284
I2487
sI2285
I2488
sI2286
I2489
sI2287
I2490
sI2288
I2491
sI2289
I2492
sI2290
I2493
sI2291
I2494
sI2292
I2495
sI2293
I2496
sI2294
I2497
sI2295
I2498
sI2296
I2499
sI2297
I2500
sI2298
I2501
sI2299
I2502
sI2300
I2503
sI2301
I2504
sI2302
I2505
sI2303
I2506
sI2304
I2507
sI2305
I2508
sI2306
I2509
sI2307
I2510
sI2308
I2511
sI2309
I2512
sI2310
I2513
sI2311
I2514
sI2312
I2515
sI2313
I2516
sI2314
I2517
sI2315
I2518
sI2316
I2519
sI2317
I2520
sI2318
I2521
sI2319
I2522
sI2320
I2523
sI2321
I2524
sI2322
I2526
sI2323
I2527
sI2324
I2528
sI2325
I2529
sI2326
I2530
sI2327
I2531
sI2328
I2534
sI2329
I2535
sI2330
I2536
sI2331
I2537
sI2332
I2538
sI2333
I2540
sI2334
I2541
sI2335
I2542
sI2336
I2543
sI2337
I2544
sI2338
I2545
sI2339
I2546
sI2340
I2547
sI2341
I2548
sI2342
I2549
sI2343
I2550
sI2344
I2551
sI2345
I2552
sI2346
I2555
sI2347
I2556
sI2348
I2557
sI2349
I2558
sI2350
I2559
sI2351
I2560
sI2352
I2561
sI2353
I2562
sI2354
I2563
sI2355
I2564
sI2356
I2565
sI2357
I2566
sI2358
I2567
sI2359
I2568
sI2360
I2569
sI2361
I2570
sI2362
I2571
sI2363
I2572
sI2364
I2573
sI2365
I2574
sI2366
I2575
sI2367
I2576
sI2368
I2577
sI2369
I2578
sI2370
I2579
sI2371
I2580
sI2372
I2581
sI2373
I2582
sI2374
I2583
sI2375
I2584
sI2376
I2585
sI2377
I2586
sI2378
I2587
sI2379
I2589
sI2380
I2591
sI2381
I2592
sI2382
I2593
sI2383
I2594
sI2384
I2595
sI2385
I2596
sI2386
I2597
sI2387
I2598
sI2388
I2599
sI2389
I2603
sI2390
I2604
sI2391
I2605
sI2392
I2606
sI2393
I2607
sI2394
I2608
sI2395
I2609
sI2396
I2610
sI2397
I2611
sI2398
I2612
sI2399
I2613
sI2400
I2614
sI2401
I2615
sI2402
I2616
sI2403
I2617
sI2404
I2618
sI2405
I2619
sI2406
I2620
sI2407
I2621
sI2408
I2623
sI2409
I2624
sI2410
I2625
sI2411
I2626
sI2412
I2627
sI2413
I2628
sI2414
I2629
sI2415
I2630
sI2416
I2631
sI2417
I2632
sI2418
I2633
sI2419
I2634
sI2420
I2635
sI2421
I2636
sI2422
I2637
sI2423
I2638
sI2424
I2639
sI2425
I2640
sI2426
I2641
sI2427
I2642
sI2428
I2643
sI2429
I2644
sI2430
I2645
sI2431
I2646
sI2432
I2647
sI2433
I2648
sI2434
I2649
sI2435
I2650
sI2436
I2651
sI2437
I2652
sI2438
I2653
sI2439
I2654
sI2440
I2655
sI2441
I2656
sI2442
I2657
sI2443
I2658
sI2444
I2659
sI2445
I2660
sI2446
I2661
sI2447
I2662
sI2448
I2663
sI2449
I2664
sI2450
I2665
sI2451
I2667
sI2452
I2668
sI2453
I2669
sI2454
I2670
sI2455
I2671
sI2456
I2672
sI2457
I2673
sI2458
I2674
sI2459
I2675
sI2460
I2676
sI2461
I2677
sI2462
I2678
sI2463
I2679
sI2464
I2680
sI2465
I2682
sI2466
I2683
sI2467
I2684
sI2468
I2685
sI2469
I2686
sI2470
I2687
sI2471
I2688
sI2472
I2689
sI2473
I2690
sI2474
I2691
sI2475
I2692
sI2476
I2693
sI2477
I2694
sI2478
I2695
sI2479
I2696
sI2480
I2697
sI2481
I2698
sI2482
I2699
sI2483
I2700
sI2484
I2701
sI2485
I2702
sI2486
I2703
sI2487
I2704
sI2488
I2705
sI2489
I2706
sI2490
I2707
sI2491
I2708
sI2492
I2709
sI2493
I2711
sI2494
I2713
sI2495
I2715
sI2496
I2716
sI2497
I2717
sI2498
I2718
sI2499
I2719
sI2500
I2720
sI2501
I2721
sI2502
I2722
sI2503
I2723
sI2504
I2724
sI2505
I2725
sI2506
I2727
sI2507
I2728
sI2508
I2729
sI2509
I2730
sI2510
I2731
sI2511
I2733
sI2512
I2734
sI2513
I2736
sI2514
I2737
sI2515
I2738
sI2516
I2739
sI2517
I2740
sI2518
I2741
sI2519
I2744
sI2520
I2746
sI2521
I2747
sI2522
I2748
sI2523
I2749
sI2524
I2751
sI2525
I2752
sI2526
I2753
sI2527
I2754
sI2528
I2755
sI2529
I2757
sI2530
I2758
sI2531
I2759
sI2532
I2760
sI2533
I2761
sI2534
I2762
sI2535
I2763
sI2536
I2764
sI2537
I2765
sI2538
I2766
sI2539
I2767
sI2540
I2768
sI2541
I2769
sI2542
I2770
sI2543
I2771
sI2544
I2772
sI2545
I2773
sI2546
I2774
sI2547
I2775
sI2548
I2776
sI2549
I2777
sI2550
I2778
sI2551
I2779
sI2552
I2780
sI2553
I2781
sI2554
I2782
sI2555
I2783
sI2556
I2784
sI2557
I2785
sI2558
I2786
sI2559
I2787
sI2560
I2788
sI2561
I2789
sI2562
I2790
sI2563
I2791
sI2564
I2792
sI2565
I2793
sI2566
I2794
sI2567
I2796
sI2568
I2797
sI2569
I2798
sI2570
I2799
sI2571
I2801
sI2572
I2802
sI2573
I2803
sI2574
I2804
sI2575
I2805
sI2576
I2807
sI2577
I2808
sI2578
I2809
sI2579
I2811
sI2580
I2813
sI2581
I2814
sI2582
I2815
sI2583
I2817
sI2584
I2818
sI2585
I2819
sI2586
I2821
sI2587
I2822
sI2588
I2823
sI2589
I2824
sI2590
I2825
sI2591
I2826
sI2592
I2827
sI2593
I2828
sI2594
I2830
sI2595
I2831
sI2596
I2832
sI2597
I2833
sI2598
I2834
sI2599
I2835
sI2600
I2838
sI2601
I2839
sI2602
I2840
sI2603
I2841
sI2604
I2842
sI2605
I2843
sI2606
I2844
sI2607
I2845
sI2608
I2846
sI2609
I2847
sI2610
I2848
sI2611
I2849
sI2612
I2850
sI2613
I2851
sI2614
I2852
sI2615
I2853
sI2616
I2855
sI2617
I2856
sI2618
I2857
sI2619
I2858
sI2620
I2859
sI2621
I2860
sI2622
I2861
sI2623
I2862
sI2624
I2863
sI2625
I2864
sI2626
I2865
sI2627
I2866
sI2628
I2867
sI2629
I2868
sI2630
I2869
sI2631
I2870
sI2632
I2871
sI2633
I2872
sI2634
I2875
sI2635
I2876
sI2636
I2877
sI2637
I2879
sI2638
I2880
sI2639
I2881
sI2640
I2882
sI2641
I2883
sI2642
I2884
sI2643
I2885
sI2644
I2886
sI2645
I2887
sI2646
I2888
sI2647
I2889
sI2648
I2890
sI2649
I2891
sI2650
I2892
sI2651
I2893
sI2652
I2894
sI2653
I2895
sI2654
I2896
sI2655
I2898
sI2656
I2899
sI2657
I2900
sI2658
I2901
sI2659
I2902
sI2660
I2903
sI2661
I2904
sI2662
I2905
sI2663
I2906
sI2664
I2907
sI2665
I2908
sI2666
I2909
sI2667
I2910
sI2668
I2912
sI2669
I2913
sI2670
I2914
sI2671
I2916
sI2672
I2917
sI2673
I2918
sI2674
I2919
sI2675
I2921
sI2676
I2922
sI2677
I2923
sI2678
I2924
sI2679
I2925
sI2680
I2926
sI2681
I2928
sI2682
I2929
sI2683
I2930
sI2684
I2931
sI2685
I2932
sI2686
I2933
sI2687
I2935
sI2688
I2936
sI2689
I2938
sI2690
I2939
sI2691
I2940
sI2692
I2941
sI2693
I2944
sI2694
I2945
sI2695
I2946
sI2696
I2947
sI2697
I2948
sI2698
I2949
sI2699
I2950
sI2700
I2951
sI2701
I2952
sI2702
I2953
sI2703
I2954
sI2704
I2955
sI2705
I2956
sI2706
I2957
sI2707
I2958
sI2708
I2960
sI2709
I2961
sI2710
I2962
sI2711
I2963
sI2712
I2964
sI2713
I2965
sI2714
I2966
sI2715
I2967
sI2716
I2968
sI2717
I2969
sI2718
I2970
sI2719
I2971
sI2720
I2972
sI2721
I2973
sI2722
I2974
sI2723
I2975
sI2724
I2976
sI2725
I2977
sI2726
I2978
sI2727
I2979
sI2728
I2980
sI2729
I2981
sI2730
I2982
sI2731
I2983
sI2732
I2985
sI2733
I2986
sI2734
I2987
sI2735
I2988
sI2736
I2989
sI2737
I2990
sI2738
I2991
sI2739
I2992
sI2740
I2993
sI2741
I2994
sI2742
I2995
sI2743
I2996
sI2744
I2998
sI2745
I2999
sI2746
I3000
sI2747
I3001
sI2748
I3002
sI2749
I3003
sI2750
I3004
sI2751
I3005
sI2752
I3006
sI2753
I3007
sI2754
I3008
sI2755
I3009
sI2756
I3010
sI2757
I3011
sI2758
I3012
sI2759
I3013
sI2760
I3014
sI2761
I3015
sI2762
I3016
sI2763
I3017
sI2764
I3018
sI2765
I3019
sI2766
I3020
sI2767
I3021
sI2768
I3022
sI2769
I3023
sI2770
I3024
sI2771
I3025
sI2772
I3026
sI2773
I3027
sI2774
I3028
sI2775
I3029
sI2776
I3030
sI2777
I3031
sI2778
I3032
sI2779
I3033
sI2780
I3034
sI2781
I3035
sI2782
I3036
sI2783
I3037
sI2784
I3038
sI2785
I3039
sI2786
I3040
sI2787
I3041
sI2788
I3042
sI2789
I3043
sI2790
I3044
sI2791
I3046
sI2792
I3047
sI2793
I3048
sI2794
I3049
sI2795
I3050
sI2796
I3051
sI2797
I3052
sI2798
I3053
sI2799
I3054
sI2800
I3055
sI2801
I3056
sI2802
I3057
sI2803
I3059
sI2804
I3060
sI2805
I3061
sI2806
I3062
sI2807
I3063
sI2808
I3066
sI2809
I3068
sI2810
I3070
sI2811
I3071
sI2812
I3072
sI2813
I3073
sI2814
I3074
sI2815
I3075
sI2816
I3076
sI2817
I3077
sI2818
I3078
sI2819
I3080
sI2820
I3081
sI2821
I3082
sI2822
I3083
sI2823
I3084
sI2824
I3085
sI2825
I3086
sI2826
I3087
sI2827
I3088
sI2828
I3089
sI2829
I3090
sI2830
I3091
sI2831
I3092
sI2832
I3093
sI2833
I3094
sI2834
I3095
sI2835
I3096
sI2836
I3097
sI2837
I3098
sI2838
I3099
sI2839
I3101
sI2840
I3102
sI2841
I3103
sI2842
I3104
sI2843
I3105
sI2844
I3106
sI2845
I3107
sI2846
I3108
sI2847
I3109
sI2848
I3110
sI2849
I3111
sI2850
I3112
sI2851
I3113
sI2852
I3114
sI2853
I3115
sI2854
I3117
sI2855
I3118
sI2856
I3119
sI2857
I3120
sI2858
I3123
sI2859
I3124
sI2860
I3125
sI2861
I3126
sI2862
I3127
sI2863
I3128
sI2864
I3129
sI2865
I3130
sI2866
I3131
sI2867
I3132
sI2868
I3133
sI2869
I3134
sI2870
I3135
sI2871
I3136
sI2872
I3137
sI2873
I3138
sI2874
I3140
sI2875
I3142
sI2876
I3143
sI2877
I3144
sI2878
I3145
sI2879
I3146
sI2880
I3147
sI2881
I3148
sI2882
I3149
sI2883
I3150
sI2884
I3151
sI2885
I3152
sI2886
I3153
sI2887
I3154
sI2888
I3155
sI2889
I3156
sI2890
I3158
sI2891
I3159
sI2892
I3160
sI2893
I3162
sI2894
I3163
sI2895
I3164
sI2896
I3165
sI2897
I3166
sI2898
I3167
sI2899
I3168
sI2900
I3169
sI2901
I3171
sI2902
I3172
sI2903
I3173
sI2904
I3174
sI2905
I3175
sI2906
I3176
sI2907
I3180
sI2908
I3181
sI2909
I3182
sI2910
I3183
sI2911
I3184
sI2912
I3185
sI2913
I3186
sI2914
I3187
sI2915
I3188
sI2916
I3189
sI2917
I3190
sI2918
I3191
sI2919
I3192
sI2920
I3193
sI2921
I3194
sI2922
I3195
sI2923
I3196
sI2924
I3197
sI2925
I3198
sI2926
I3199
sI2927
I3200
sI2928
I3201
sI2929
I3202
sI2930
I3203
sI2931
I3204
sI2932
I3205
sI2933
I3206
sI2934
I3207
sI2935
I3208
sI2936
I3209
sI2937
I3210
sI2938
I3211
sI2939
I3212
sI2940
I3213
sI2941
I3214
sI2942
I3215
sI2943
I3216
sI2944
I3217
sI2945
I3218
sI2946
I3219
sI2947
I3220
sI2948
I3221
sI2949
I3222
sI2950
I3223
sI2951
I3224
sI2952
I3225
sI2953
I3226
sI2954
I3227
sI2955
I3228
sI2956
I3229
sI2957
I3230
sI2958
I3231
sI2959
I3232
sI2960
I3233
sI2961
I3234
sI2962
I3235
sI2963
I3237
sI2964
I3238
sI2965
I3239
sI2966
I3240
sI2967
I3241
sI2968
I3242
sI2969
I3243
sI2970
I3244
sI2971
I3245
sI2972
I3246
sI2973
I3247
sI2974
I3248
sI2975
I3249
sI2976
I3250
sI2977
I3251
sI2978
I3252
sI2979
I3253
sI2980
I3255
sI2981
I3256
sI2982
I3257
sI2983
I3258
sI2984
I3259
sI2985
I3260
sI2986
I3261
sI2987
I3262
sI2988
I3263
sI2989
I3264
sI2990
I3265
sI2991
I3266
sI2992
I3267
sI2993
I3268
sI2994
I3269
sI2995
I3270
sI2996
I3271
sI2997
I3272
sI2998
I3273
sI2999
I3274
sI3000
I3275
sI3001
I3276
sI3002
I3277
sI3003
I3278
sI3004
I3279
sI3005
I3280
sI3006
I3281
sI3007
I3282
sI3008
I3284
sI3009
I3285
sI3010
I3288
sI3011
I3290
sI3012
I3291
sI3013
I3292
sI3014
I3293
sI3015
I3294
sI3016
I3296
sI3017
I3297
sI3018
I3298
sI3019
I3299
sI3020
I3300
sI3021
I3301
sI3022
I3302
sI3023
I3303
sI3024
I3304
sI3025
I3305
sI3026
I3306
sI3027
I3307
sI3028
I3309
sI3029
I3310
sI3030
I3311
sI3031
I3312
sI3032
I3313
sI3033
I3314
sI3034
I3315
sI3035
I3316
sI3036
I3317
sI3037
I3318
sI3038
I3319
sI3039
I3320
sI3040
I3321
sI3041
I3322
sI3042
I3323
sI3043
I3324
sI3044
I3325
sI3045
I3326
sI3046
I3331
sI3047
I3332
sI3048
I3333
sI3049
I3334
sI3050
I3335
sI3051
I3338
sI3052
I3339
sI3053
I3340
sI3054
I3341
sI3055
I3342
sI3056
I3343
sI3057
I3344
sI3058
I3345
sI3059
I3346
sI3060
I3348
sI3061
I3349
sI3062
I3350
sI3063
I3351
sI3064
I3352
sI3065
I3353
sI3066
I3354
sI3067
I3355
sI3068
I3356
sI3069
I3357
sI3070
I3358
sI3071
I3359
sI3072
I3360
sI3073
I3361
sI3074
I3362
sI3075
I3363
sI3076
I3366
sI3077
I3367
sI3078
I3368
sI3079
I3369
sI3080
I3370
sI3081
I3371
sI3082
I3373
sI3083
I3374
sI3084
I3375
sI3085
I3376
sI3086
I3377
sI3087
I3378
sI3088
I3379
sI3089
I3380
sI3090
I3381
sI3091
I3382
sI3092
I3383
sI3093
I3384
sI3094
I3385
sI3095
I3386
sI3096
I3388
sI3097
I3389
sI3098
I3390
sI3099
I3391
sI3100
I3392
sI3101
I3393
sI3102
I3394
sI3103
I3395
sI3104
I3396
sI3105
I3397
sI3106
I3398
sI3107
I3399
sI3108
I3400
sI3109
I3401
sI3110
I3402
sI3111
I3403
sI3112
I3404
sI3113
I3405
sI3114
I3406
sI3115
I3407
sI3116
I3408
sI3117
I3409
sI3118
I3410
sI3119
I3411
sI3120
I3412
sI3121
I3416
sI3122
I3417
sI3123
I3418
sI3124
I3422
sI3125
I3423
sI3126
I3424
sI3127
I3425
sI3128
I3426
sI3129
I3427
sI3130
I3429
sI3131
I3433
sI3132
I3434
sI3133
I3435
sI3134
I3436
sI3135
I3437
sI3136
I3438
sI3137
I3439
sI3138
I3440
sI3139
I3441
sI3140
I3443
sI3141
I3444
sI3142
I3445
sI3143
I3446
sI3144
I3447
sI3145
I3448
sI3146
I3449
sI3147
I3450
sI3148
I3451
sI3149
I3452
sI3150
I3453
sI3151
I3454
sI3152
I3455
sI3153
I3456
sI3154
I3457
sI3155
I3458
sI3156
I3459
sI3157
I3460
sI3158
I3461
sI3159
I3462
sI3160
I3463
sI3161
I3464
sI3162
I3465
sI3163
I3466
sI3164
I3467
sI3165
I3468
sI3166
I3469
sI3167
I3470
sI3168
I3471
sI3169
I3472
sI3170
I3473
sI3171
I3475
sI3172
I3477
sI3173
I3478
sI3174
I3479
sI3175
I3480
sI3176
I3481
sI3177
I3482
sI3178
I3483
sI3179
I3486
sI3180
I3487
sI3181
I3488
sI3182
I3489
sI3183
I3490
sI3184
I3491
sI3185
I3492
sI3186
I3493
sI3187
I3494
sI3188
I3495
sI3189
I3496
sI3190
I3497
sI3191
I3498
sI3192
I3499
sI3193
I3500
sI3194
I3504
sI3195
I3506
sI3196
I3508
sI3197
I3509
sI3198
I3510
sI3199
I3511
sI3200
I3512
sI3201
I3513
sI3202
I3514
sI3203
I3515
sI3204
I3516
sI3205
I3518
sI3206
I3519
sI3207
I3520
sI3208
I3521
sI3209
I3522
sI3210
I3523
sI3211
I3524
sI3212
I3525
sI3213
I3526
sI3214
I3527
sI3215
I3528
sI3216
I3529
sI3217
I3530
sI3218
I3531
sI3219
I3532
sI3220
I3535
sI3221
I3536
sI3222
I3537
sI3223
I3538
sI3224
I3539
sI3225
I3540
sI3226
I3541
sI3227
I3542
sI3228
I3543
sI3229
I3544
sI3230
I3545
sI3231
I3547
sI3232
I3548
sI3233
I3549
sI3234
I3550
sI3235
I3551
sI3236
I3552
sI3237
I3553
sI3238
I3554
sI3239
I3555
sI3240
I3556
sI3241
I3557
sI3242
I3558
sI3243
I3560
sI3244
I3561
sI3245
I3562
sI3246
I3563
sI3247
I3564
sI3248
I3565
sI3249
I3566
sI3250
I3567
sI3251
I3568
sI3252
I3569
sI3253
I3571
sI3254
I3576
sI3255
I3577
sI3256
I3578
sI3257
I3579
sI3258
I3580
sI3259
I3581
sI3260
I3582
sI3261
I3583
sI3262
I3584
sI3263
I3585
sI3264
I3586
sI3265
I3587
sI3266
I3589
sI3267
I3590
sI3268
I3591
sI3269
I3592
sI3270
I3593
sI3271
I3594
sI3272
I3595
sI3273
I3596
sI3274
I3597
sI3275
I3598
sI3276
I3599
sI3277
I3600
sI3278
I3601
sI3279
I3602
sI3280
I3603
sI3281
I3604
sI3282
I3605
sI3283
I3606
sI3284
I3607
sI3285
I3609
sI3286
I3610
sI3287
I3611
sI3288
I3613
sI3289
I3614
sI3290
I3615
sI3291
I3616
sI3292
I3617
sI3293
I3618
sI3294
I3619
sI3295
I3620
sI3296
I3621
sI3297
I3622
sI3298
I3623
sI3299
I3624
sI3300
I3625
sI3301
I3628
sI3302
I3629
sI3303
I3630
sI3304
I3631
sI3305
I3632
sI3306
I3633
sI3307
I3634
sI3308
I3635
sI3309
I3636
sI3310
I3637
sI3311
I3638
sI3312
I3639
sI3313
I3640
sI3314
I3641
sI3315
I3642
sI3316
I3643
sI3317
I3645
sI3318
I3646
sI3319
I3647
sI3320
I3648
sI3321
I3649
sI3322
I3650
sI3323
I3651
sI3324
I3652
sI3325
I3653
sI3326
I3654
sI3327
I3655
sI3328
I3656
sI3329
I3657
sI3330
I3658
sI3331
I3659
sI3332
I3660
sI3333
I3661
sI3334
I3662
sI3335
I3663
sI3336
I3664
sI3337
I3665
sI3338
I3666
sI3339
I3667
sI3340
I3668
sI3341
I3669
sI3342
I3670
sI3343
I3671
sI3344
I3673
sI3345
I3674
sI3346
I3675
sI3347
I3676
sI3348
I3677
sI3349
I3678
sI3350
I3679
sI3351
I3680
sI3352
I3681
sI3353
I3682
sI3354
I3683
sI3355
I3684
sI3356
I3685
sI3357
I3686
sI3358
I3687
sI3359
I3688
sI3360
I3689
sI3361
I3690
sI3362
I3691
sI3363
I3692
sI3364
I3693
sI3365
I3694
sI3366
I3695
sI3367
I3696
sI3368
I3697
sI3369
I3698
sI3370
I3700
sI3371
I3701
sI3372
I3702
sI3373
I3703
sI3374
I3704
sI3375
I3705
sI3376
I3706
sI3377
I3707
sI3378
I3708
sI3379
I3709
sI3380
I3711
sI3381
I3712
sI3382
I3713
sI3383
I3714
sI3384
I3715
sI3385
I3717
sI3386
I3718
sI3387
I3719
sI3388
I3720
sI3389
I3722
sI3390
I3723
sI3391
I3724
sI3392
I3725
sI3393
I3726
sI3394
I3727
sI3395
I3728
sI3396
I3729
sI3397
I3730
sI3398
I3731
sI3399
I3733
sI3400
I3735
sI3401
I3737
sI3402
I3742
sI3403
I3743
sI3404
I3744
sI3405
I3745
sI3406
I3746
sI3407
I3747
sI3408
I3748
sI3409
I3749
sI3410
I3750
sI3411
I3751
sI3412
I3752
sI3413
I3753
sI3414
I3754
sI3415
I3755
sI3416
I3757
sI3417
I3758
sI3418
I3759
sI3419
I3760
sI3420
I3761
sI3421
I3762
sI3422
I3763
sI3423
I3764
sI3424
I3765
sI3425
I3766
sI3426
I3767
sI3427
I3769
sI3428
I3770
sI3429
I3771
sI3430
I3772
sI3431
I3774
sI3432
I3775
sI3433
I3776
sI3434
I3777
sI3435
I3779
sI3436
I3780
sI3437
I3781
sI3438
I3782
sI3439
I3783
sI3440
I3784
sI3441
I3785
sI3442
I3786
sI3443
I3787
sI3444
I3788
sI3445
I3791
sI3446
I3792
sI3447
I3794
sI3448
I3795
sI3449
I3796
sI3450
I3797
sI3451
I3798
sI3452
I3799
sI3453
I3800
sI3454
I3801
sI3455
I3802
sI3456
I3803
sI3457
I3804
sI3458
I3805
sI3459
I3806
sI3460
I3807
sI3461
I3808
sI3462
I3809
sI3463
I3810
sI3464
I3811
sI3465
I3812
sI3466
I3813
sI3467
I3814
sI3468
I3815
sI3469
I3816
sI3470
I3817
sI3471
I3819
sI3472
I3821
sI3473
I3822
sI3474
I3823
sI3475
I3824
sI3476
I3825
sI3477
I3827
sI3478
I3829
sI3479
I3830
sI3480
I3832
sI3481
I3833
sI3482
I3834
sI3483
I3835
sI3484
I3836
sI3485
I3837
sI3486
I3839
sI3487
I3840
sI3488
I3841
sI3489
I3842
sI3490
I3843
sI3491
I3844
sI3492
I3845
sI3493
I3847
sI3494
I3848
sI3495
I3849
sI3496
I3850
sI3497
I3851
sI3498
I3854
sI3499
I3855
sI3500
I3856
sI3501
I3858
sI3502
I3862
sI3503
I3863
sI3504
I3864
sI3505
I3865
sI3506
I3867
sI3507
I3869
sI3508
I3870
sI3509
I3871
sI3510
I3872
sI3511
I3873
sI3512
I3875
sI3513
I3876
sI3514
I3877
sI3515
I3878
sI3516
I3880
sI3517
I3881
sI3518
I3882
sI3519
I3883
sI3520
I3885
sI3521
I3886
sI3522
I3887
sI3523
I3888
sI3524
I3889
sI3525
I3890
sI3526
I3891
sI3527
I3892
sI3528
I3893
sI3529
I3894
sI3530
I3895
sI3531
I3896
sI3532
I3897
sI3533
I3898
sI3534
I3900
sI3535
I3901
sI3536
I3902
sI3537
I3903
sI3538
I3904
sI3539
I3905
sI3540
I3906
sI3541
I3907
sI3542
I3908
sI3543
I3909
sI3544
I3910
sI3545
I3911
sI3546
I3912
sI3547
I3914
sI3548
I3916
sI3549
I3917
sI3550
I3918
sI3551
I3919
sI3552
I3920
sI3553
I3921
sI3554
I3922
sI3555
I3923
sI3556
I3924
sI3557
I3925
sI3558
I3926
sI3559
I3927
sI3560
I3928
sI3561
I3929
sI3562
I3930
sI3563
I3931
sI3564
I3932
sI3565
I3933
sI3566
I3935
sI3567
I3936
sI3568
I3937
sI3569
I3939
sI3570
I3941
sI3571
I3942
sI3572
I3943
sI3573
I3944
sI3574
I3945
sI3575
I3946
sI3576
I3947
sI3577
I3948
sI3578
I3949
sI3579
I3952
sI3580
I3953
sI3581
I3954
sI3582
I3955
sI3583
I3956
sI3584
I3957
sI3585
I3958
sI3586
I3959
sI3587
I3960
sI3588
I3961
sI3589
I3962
sI3590
I3963
sI3591
I3964
sI3592
I3965
sI3593
I3966
sI3594
I3967
sI3595
I3968
sI3596
I3969
sI3597
I3970
sI3598
I3971
sI3599
I3973
sI3600
I3974
sI3601
I3976
sI3602
I3977
sI3603
I3978
sI3604
I3979
sI3605
I3980
sI3606
I3981
sI3607
I3982
sI3608
I3983
sI3609
I3984
sI3610
I3985
sI3611
I3986
sI3612
I3987
sI3613
I3989
sI3614
I3990
sI3615
I3991
sI3616
I3992
sI3617
I3995
sI3618
I3997
sI3619
I3998
sI3620
I3999
sI3621
I4000
sI3622
I4001
sI3623
I4005
sI3624
I4006
sI3625
I4007
sI3626
I4008
sI3627
I4009
sI3628
I4010
sI3629
I4011
sI3630
I4012
sI3631
I4013
sI3632
I4014
sI3633
I4015
sI3634
I4016
sI3635
I4019
sI3636
I4020
sI3637
I4021
sI3638
I4023
sI3639
I4024
sI3640
I4025
sI3641
I4026
sI3642
I4027
sI3643
I4028
sI3644
I4030
sI3645
I4031
sI3646
I4034
sI3647
I4035
sI3648
I4036
sI3649
I4037
sI3650
I4038
sI3651
I4039
sI3652
I4040
sI3653
I4041
sI3654
I4042
sI3655
I4043
sI3656
I4044
sI3657
I4045
sI3658
I4046
sI3659
I4047
sI3660
I4048
sI3661
I4049
sI3662
I4050
sI3663
I4051
sI3664
I4053
sI3665
I4055
sI3666
I4056
sI3667
I4057
sI3668
I4058
sI3669
I4059
sI3670
I4061
sI3671
I4062
sI3672
I4063
sI3673
I4064
sI3674
I4065
sI3675
I4066
sI3676
I4067
sI3677
I4068
sI3678
I4069
sI3679
I4070
sI3680
I4071
sI3681
I4072
sI3682
I4073
sI3683
I4074
sI3684
I4075
sI3685
I4076
sI3686
I4077
sI3687
I4078
sI3688
I4079
sI3689
I4080
sI3690
I4082
sI3691
I4083
sI3692
I4085
sI3693
I4086
sI3694
I4088
sI3695
I4089
sI3696
I4090
sI3697
I4091
sI3698
I4092
sI3699
I4093
sI3700
I4095
sI3701
I4096
sI3702
I4097
sI3703
I4098
sI3704
I4099
sI3705
I4100
sI3706
I4103
sI3707
I4104
sI3708
I4105
sI3709
I4106
sI3710
I4107
sI3711
I4108
sI3712
I4109
sI3713
I4110
sI3714
I4111
sI3715
I4116
sI3716
I4117
sI3717
I4119
sI3718
I4120
sI3719
I4121
sI3720
I4122
sI3721
I4123
sI3722
I4124
sI3723
I4125
sI3724
I4126
sI3725
I4127
sI3726
I4128
sI3727
I4129
sI3728
I4130
sI3729
I4131
sI3730
I4132
sI3731
I4133
sI3732
I4134
sI3733
I4135
sI3734
I4136
sI3735
I4137
sI3736
I4138
sI3737
I4139
sI3738
I4140
sI3739
I4141
sI3740
I4142
sI3741
I4143
sI3742
I4144
sI3743
I4145
sI3744
I4146
sI3745
I4147
sI3746
I4148
sI3747
I4149
sI3748
I4150
sI3749
I4151
sI3750
I4152
sI3751
I4153
sI3752
I4154
sI3753
I4155
sI3754
I4159
sI3755
I4162
sI3756
I4163
sI3757
I4164
sI3758
I4165
sI3759
I4166
sI3760
I4167
sI3761
I4168
sI3762
I4169
sI3763
I4170
sI3764
I4171
sI3765
I4173
sI3766
I4174
sI3767
I4175
sI3768
I4176
sI3769
I4177
sI3770
I4178
sI3771
I4179
sI3772
I4180
sI3773
I4181
sI3774
I4183
sI3775
I4184
sI3776
I4185
sI3777
I4186
sI3778
I4187
sI3779
I4188
sI3780
I4189
sI3781
I4190
sI3782
I4191
sI3783
I4192
sI3784
I4194
sI3785
I4195
sI3786
I4197
sI3787
I4198
sI3788
I4199
sI3789
I4200
sI3790
I4201
sI3791
I4202
sI3792
I4203
sI3793
I4204
sI3794
I4205
sI3795
I4206
sI3796
I4207
sI3797
I4208
sI3798
I4209
sI3799
I4210
sI3800
I4211
sI3801
I4212
sI3802
I4213
sI3803
I4214
sI3804
I4215
sI3805
I4216
sI3806
I4217
sI3807
I4218
sI3808
I4219
sI3809
I4220
sI3810
I4221
sI3811
I4222
sI3812
I4223
sI3813
I4224
sI3814
I4225
sI3815
I4228
sI3816
I4229
sI3817
I4231
sI3818
I4232
sI3819
I4233
sI3820
I4234
sI3821
I4235
sI3822
I4236
sI3823
I4237
sI3824
I4238
sI3825
I4240
sI3826
I4241
sI3827
I4242
sI3828
I4243
sI3829
I4244
sI3830
I4245
sI3831
I4246
sI3832
I4247
sI3833
I4248
sI3834
I4249
sI3835
I4250
sI3836
I4251
sI3837
I4252
sI3838
I4254
sI3839
I4255
sI3840
I4256
sI3841
I4257
sI3842
I4259
sI3843
I4260
sI3844
I4261
sI3845
I4263
sI3846
I4264
sI3847
I4265
sI3848
I4266
sI3849
I4267
sI3850
I4269
sI3851
I4272
sI3852
I4273
sI3853
I4274
sI3854
I4275
sI3855
I4276
sI3856
I4277
sI3857
I4278
sI3858
I4279
sI3859
I4280
sI3860
I4282
sI3861
I4283
sI3862
I4284
sI3863
I4285
sI3864
I4289
sI3865
I4290
sI3866
I4291
sI3867
I4292
sI3868
I4295
sI3869
I4296
sI3870
I4297
sI3871
I4298
sI3872
I4299
sI3873
I4303
sI3874
I4304
sI3875
I4305
sI3876
I4306
sI3877
I4307
sI3878
I4308
sI3879
I4310
sI3880
I4311
sI3881
I4312
sI3882
I4313
sI3883
I4314
sI3884
I4315
sI3885
I4316
sI3886
I4317
sI3887
I4318
sI3888
I4319
sI3889
I4320
sI3890
I4321
sI3891
I4322
sI3892
I4323
sI3893
I4324
sI3894
I4325
sI3895
I4326
sI3896
I4327
sI3897
I4328
sI3898
I4329
sI3899
I4331
sI3900
I4332
sI3901
I4333
sI3902
I4334
sI3903
I4335
sI3904
I4336
sI3905
I4337
sI3906
I4338
sI3907
I4340
sI3908
I4341
sI3909
I4342
sI3910
I4343
sI3911
I4344
sI3912
I4345
sI3913
I4346
sI3914
I4347
sI3915
I4348
sI3916
I4349
sI3917
I4351
sI3918
I4352
sI3919
I4353
sI3920
I4354
sI3921
I4355
sI3922
I4357
sI3923
I4358
sI3924
I4359
sI3925
I4360
sI3926
I4361
sI3927
I4362
sI3928
I4363
sI3929
I4364
sI3930
I4365
sI3931
I4366
sI3932
I4368
sI3933
I4369
sI3934
I4370
sI3935
I4371
sI3936
I4372
sI3937
I4373
sI3938
I4375
sI3939
I4377
sI3940
I4378
sI3941
I4379
sI3942
I4380
sI3943
I4381
sI3944
I4382
sI3945
I4383
sI3946
I4384
sI3947
I4385
sI3948
I4386
sI3949
I4389
sI3950
I4393
sI3951
I4394
sI3952
I4395
sI3953
I4396
sI3954
I4397
sI3955
I4398
sI3956
I4399
sI3957
I4400
sI3958
I4401
sI3959
I4402
sI3960
I4403
sI3961
I4404
sI3962
I4405
sI3963
I4406
sI3964
I4407
sI3965
I4408
sI3966
I4409
sI3967
I4411
sI3968
I4412
sI3969
I4413
sI3970
I4414
sI3971
I4415
sI3972
I4416
sI3973
I4417
sI3974
I4418
sI3975
I4422
sI3976
I4423
sI3977
I4424
sI3978
I4425
sI3979
I4426
sI3980
I4427
sI3981
I4428
sI3982
I4429
sI3983
I4430
sI3984
I4431
sI3985
I4432
sI3986
I4433
sI3987
I4434
sI3988
I4435
sI3989
I4436
sI3990
I4437
sI3991
I4438
sI3992
I4439
sI3993
I4440
sI3994
I4441
sI3995
I4442
sI3996
I4443
sI3997
I4444
sI3998
I4445
sI3999
I4446
sI4000
I4447
sI4001
I4448
sI4002
I4449
sI4003
I4450
sI4004
I4451
sI4005
I4452
sI4006
I4453
sI4007
I4454
sI4008
I4455
sI4009
I4456
sI4010
I4457
sI4011
I4458
sI4012
I4459
sI4013
I4460
sI4014
I4461
sI4015
I4462
sI4016
I4463
sI4017
I4464
sI4018
I4465
sI4019
I4466
sI4020
I4467
sI4021
I4468
sI4022
I4469
sI4023
I4470
sI4024
I4471
sI4025
I4473
sI4026
I4474
sI4027
I4475
sI4028
I4476
sI4029
I4477
sI4030
I4478
sI4031
I4479
sI4032
I4480
sI4033
I4481
sI4034
I4482
sI4035
I4483
sI4036
I4485
sI4037
I4486
sI4038
I4487
sI4039
I4488
sI4040
I4489
sI4041
I4490
sI4042
I4491
sI4043
I4492
sI4044
I4493
sI4045
I4494
sI4046
I4495
sI4047
I4496
sI4048
I4497
sI4049
I4498
sI4050
I4500
sI4051
I4502
sI4052
I4503
sI4053
I4504
sI4054
I4507
sI4055
I4508
sI4056
I4509
sI4057
I4510
sI4058
I4511
sI4059
I4516
sI4060
I4521
sI4061
I4523
sI4062
I4524
sI4063
I4526
sI4064
I4527
sI4065
I4528
sI4066
I4529
sI4067
I4530
sI4068
I4531
sI4069
I4532
sI4070
I4533
sI4071
I4534
sI4072
I4535
sI4073
I4536
sI4074
I4538
sI4075
I4539
sI4076
I4540
sI4077
I4541
sI4078
I4542
sI4079
I4543
sI4080
I4544
sI4081
I4545
sI4082
I4547
sI4083
I4550
sI4084
I4551
sI4085
I4552
sI4086
I4553
sI4087
I4554
sI4088
I4555
sI4089
I4556
sI4090
I4557
sI4091
I4558
sI4092
I4560
sI4093
I4561
sI4094
I4562
sI4095
I4563
sI4096
I4564
sI4097
I4565
sI4098
I4566
sI4099
I4567
sI4100
I4568
sI4101
I4569
sI4102
I4574
sI4103
I4575
sI4104
I4576
sI4105
I4577
sI4106
I4578
sI4107
I4580
sI4108
I4581
sI4109
I4582
sI4110
I4583
sI4111
I4584
sI4112
I4586
sI4113
I4587
sI4114
I4588
sI4115
I4591
sI4116
I4592
sI4117
I4593
sI4118
I4594
sI4119
I4595
sI4120
I4596
sI4121
I4597
sI4122
I4598
sI4123
I4599
sI4124
I4600
sI4125
I4601
sI4126
I4602
sI4127
I4603
sI4128
I4604
sI4129
I4605
sI4130
I4607
sI4131
I4608
sI4132
I4609
sI4133
I4611
sI4134
I4612
sI4135
I4613
sI4136
I4615
sI4137
I4616
sI4138
I4617
sI4139
I4618
sI4140
I4619
sI4141
I4620
sI4142
I4621
sI4143
I4622
sI4144
I4623
sI4145
I4624
sI4146
I4625
sI4147
I4626
sI4148
I4627
sI4149
I4629
sI4150
I4630
sI4151
I4631
sI4152
I4632
sI4153
I4633
sI4154
I4635
sI4155
I4636
sI4156
I4638
sI4157
I4639
sI4158
I4640
sI4159
I4641
sI4160
I4644
sI4161
I4645
sI4162
I4646
sI4163
I4647
sI4164
I4648
sI4165
I4649
sI4166
I4650
sI4167
I4651
sI4168
I4652
sI4169
I4653
sI4170
I4654
sI4171
I4655
sI4172
I4658
sI4173
I4659
sI4174
I4660
sI4175
I4661
sI4176
I4662
sI4177
I4663
sI4178
I4664
sI4179
I4665
sI4180
I4666
sI4181
I4667
sI4182
I4668
sI4183
I4669
sI4184
I4670
sI4185
I4671
sI4186
I4672
sI4187
I4673
sI4188
I4674
sI4189
I4675
sI4190
I4677
sI4191
I4678
sI4192
I4681
sI4193
I4682
sI4194
I4683
sI4195
I4684
sI4196
I4686
sI4197
I4687
sI4198
I4688
sI4199
I4689
sI4200
I4692
sI4201
I4693
sI4202
I4694
sI4203
I4695
sI4204
I4696
sI4205
I4697
sI4206
I4698
sI4207
I4699
sI4208
I4700
sI4209
I4701
sI4210
I4702
sI4211
I4703
sI4212
I4704
sI4213
I4705
sI4214
I4706
sI4215
I4707
sI4216
I4708
sI4217
I4709
sI4218
I4710
sI4219
I4711
sI4220
I4712
sI4221
I4713
sI4222
I4714
sI4223
I4715
sI4224
I4716
sI4225
I4717
sI4226
I4718
sI4227
I4719
sI4228
I4720
sI4229
I4721
sI4230
I4723
sI4231
I4725
sI4232
I4726
sI4233
I4727
sI4234
I4728
sI4235
I4733
sI4236
I4735
sI4237
I4736
sI4238
I4737
sI4239
I4738
sI4240
I4739
sI4241
I4740
sI4242
I4741
sI4243
I4742
sI4244
I4743
sI4245
I4744
sI4246
I4745
sI4247
I4746
sI4248
I4748
sI4249
I4749
sI4250
I4750
sI4251
I4751
sI4252
I4752
sI4253
I4753
sI4254
I4754
sI4255
I4755
sI4256
I4756
sI4257
I4757
sI4258
I4759
sI4259
I4760
sI4260
I4761
sI4261
I4762
sI4262
I4763
sI4263
I4764
sI4264
I4765
sI4265
I4766
sI4266
I4767
sI4267
I4771
sI4268
I4773
sI4269
I4774
sI4270
I4776
sI4271
I4777
sI4272
I4778
sI4273
I4779
sI4274
I4780
sI4275
I4781
sI4276
I4782
sI4277
I4783
sI4278
I4785
sI4279
I4786
sI4280
I4787
sI4281
I4788
sI4282
I4789
sI4283
I4790
sI4284
I4791
sI4285
I4792
sI4286
I4793
sI4287
I4794
sI4288
I4795
sI4289
I4796
sI4290
I4797
sI4291
I4798
sI4292
I4799
sI4293
I4800
sI4294
I4801
sI4295
I4803
sI4296
I4804
sI4297
I4805
sI4298
I4806
sI4299
I4807
sI4300
I4808
sI4301
I4809
sI4302
I4810
sI4303
I4811
sI4304
I4813
sI4305
I4814
sI4306
I4815
sI4307
I4816
sI4308
I4817
sI4309
I4818
sI4310
I4819
sI4311
I4820
sI4312
I4821
sI4313
I4822
sI4314
I4823
sI4315
I4824
sI4316
I4825
sI4317
I4826
sI4318
I4827
sI4319
I4828
sI4320
I4829
sI4321
I4830
sI4322
I4831
sI4323
I4832
sI4324
I4833
sI4325
I4834
sI4326
I4835
sI4327
I4836
sI4328
I4837
sI4329
I4838
sI4330
I4839
sI4331
I4840
sI4332
I4841
sI4333
I4842
sI4334
I4843
sI4335
I4844
sI4336
I4845
sI4337
I4846
sI4338
I4847
sI4339
I4848
sI4340
I4849
sI4341
I4850
sI4342
I4851
sI4343
I4852
sI4344
I4853
sI4345
I4854
sI4346
I4855
sI4347
I4856
sI4348
I4857
sI4349
I4858
sI4350
I4859
sI4351
I4860
sI4352
I4861
sI4353
I4862
sI4354
I4863
sI4355
I4864
sI4356
I4866
sI4357
I4867
sI4358
I4868
sI4359
I4869
sI4360
I4870
sI4361
I4871
sI4362
I4872
sI4363
I4873
sI4364
I4874
sI4365
I4875
sI4366
I4876
sI4367
I4879
sI4368
I4880
sI4369
I4881
sI4370
I4882
sI4371
I4883
sI4372
I4884
sI4373
I4885
sI4374
I4886
sI4375
I4887
sI4376
I4889
sI4377
I4890
sI4378
I4891
sI4379
I4893
sI4380
I4894
sI4381
I4896
sI4382
I4897
sI4383
I4898
sI4384
I4899
sI4385
I4900
sI4386
I4901
sI4387
I4903
sI4388
I4904
sI4389
I4905
sI4390
I4906
sI4391
I4908
sI4392
I4909
sI4393
I4910
sI4394
I4911
sI4395
I4912
sI4396
I4913
sI4397
I4914
sI4398
I4915
sI4399
I4916
sI4400
I4917
sI4401
I4918
sI4402
I4919
sI4403
I4920
sI4404
I4921
sI4405
I4922
sI4406
I4923
sI4407
I4924
sI4408
I4925
sI4409
I4926
sI4410
I4927
sI4411
I4929
sI4412
I4931
sI4413
I4932
sI4414
I4933
sI4415
I4934
sI4416
I4935
sI4417
I4936
sI4418
I4937
sI4419
I4938
sI4420
I4940
sI4421
I4942
sI4422
I4943
sI4423
I4944
sI4424
I4945
sI4425
I4946
sI4426
I4947
sI4427
I4948
sI4428
I4950
sI4429
I4951
sI4430
I4952
sI4431
I4953
sI4432
I4954
sI4433
I4957
sI4434
I4960
sI4435
I4962
sI4436
I4963
sI4437
I4964
sI4438
I4965
sI4439
I4966
sI4440
I4967
sI4441
I4969
sI4442
I4970
sI4443
I4971
sI4444
I4972
sI4445
I4973
sI4446
I4974
sI4447
I4975
sI4448
I4976
sI4449
I4977
sI4450
I4978
sI4451
I4979
sI4452
I4980
sI4453
I4981
sI4454
I4982
sI4455
I4983
sI4456
I4985
sI4457
I4986
sI4458
I4987
sI4459
I4988
sI4460
I4989
sI4461
I4991
sI4462
I4992
sI4463
I4993
sI4464
I4994
sI4465
I4995
sI4466
I4996
sI4467
I4999
sI4468
I5000
sI4469
I5001
sI4470
I5002
sI4471
I5003
sI4472
I5005
sI4473
I5006
sI4474
I5008
sI4475
I5009
sI4476
I5010
sI4477
I5011
sI4478
I5012
sI4479
I5013
sI4480
I5015
sI4481
I5016
sI4482
I5017
sI4483
I5018
sI4484
I5019
sI4485
I5020
sI4486
I5022
sI4487
I5024
sI4488
I5026
sI4489
I5028
sI4490
I5029
sI4491
I5031
sI4492
I5032
sI4493
I5033
sI4494
I5035
sI4495
I5036
sI4496
I5037
sI4497
I5038
sI4498
I5039
sI4499
I5040
sI4500
I5043
sI4501
I5044
sI4502
I5045
sI4503
I5046
sI4504
I5047
sI4505
I5048
sI4506
I5050
sI4507
I5051
sI4508
I5052
sI4509
I5053
sI4510
I5054
sI4511
I5055
sI4512
I5057
sI4513
I5058
sI4514
I5059
sI4515
I5060
sI4516
I5061
sI4517
I5062
sI4518
I5063
sI4519
I5064
sI4520
I5065
sI4521
I5067
sI4522
I5068
sI4523
I5069
sI4524
I5070
sI4525
I5071
sI4526
I5072
sI4527
I5073
sI4528
I5075
sI4529
I5077
sI4530
I5078
sI4531
I5079
sI4532
I5080
sI4533
I5081
sI4534
I5083
sI4535
I5084
sI4536
I5085
sI4537
I5086
sI4538
I5087
sI4539
I5088
sI4540
I5089
sI4541
I5090
sI4542
I5091
sI4543
I5092
sI4544
I5093
sI4545
I5095
sI4546
I5096
sI4547
I5097
sI4548
I5098
sI4549
I5099
sI4550
I5100
sI4551
I5102
sI4552
I5103
sI4553
I5104
sI4554
I5105
sI4555
I5106
sI4556
I5109
sI4557
I5110
sI4558
I5111
sI4559
I5112
sI4560
I5114
sI4561
I5115
sI4562
I5116
sI4563
I5117
sI4564
I5118
sI4565
I5119
sI4566
I5120
sI4567
I5121
sI4568
I5122
sI4569
I5123
sI4570
I5124
sI4571
I5125
sI4572
I5126
sI4573
I5127
sI4574
I5128
sI4575
I5129
sI4576
I5130
sI4577
I5132
sI4578
I5133
sI4579
I5135
sI4580
I5136
sI4581
I5138
sI4582
I5139
sI4583
I5140
sI4584
I5141
sI4585
I5142
sI4586
I5143
sI4587
I5144
sI4588
I5145
sI4589
I5146
sI4590
I5148
sI4591
I5150
sI4592
I5151
sI4593
I5152
sI4594
I5153
sI4595
I5154
sI4596
I5155
sI4597
I5158
sI4598
I5159
sI4599
I5160
sI4600
I5161
sI4601
I5162
sI4602
I5163
sI4603
I5164
sI4604
I5166
sI4605
I5167
sI4606
I5171
sI4607
I5172
sI4608
I5173
sI4609
I5174
sI4610
I5175
sI4611
I5176
sI4612
I5177
sI4613
I5178
sI4614
I5179
sI4615
I5180
sI4616
I5181
sI4617
I5182
sI4618
I5183
sI4619
I5184
sI4620
I5185
sI4621
I5186
sI4622
I5187
sI4623
I5188
sI4624
I5189
sI4625
I5190
sI4626
I5191
sI4627
I5192
sI4628
I5193
sI4629
I5194
sI4630
I5195
sI4631
I5196
sI4632
I5197
sI4633
I5198
sI4634
I5199
sI4635
I5200
sI4636
I5201
sI4637
I5202
sI4638
I5203
sI4639
I5204
sI4640
I5207
sI4641
I5208
sI4642
I5209
sI4643
I5210
sI4644
I5213
sI4645
I5214
sI4646
I5215
sI4647
I5216
sI4648
I5217
sI4649
I5218
sI4650
I5219
sI4651
I5220
sI4652
I5221
sI4653
I5222
sI4654
I5224
sI4655
I5225
sI4656
I5226
sI4657
I5227
sI4658
I5228
sI4659
I5229
sI4660
I5230
sI4661
I5231
sI4662
I5232
sI4663
I5233
sI4664
I5238
sI4665
I5239
sI4666
I5240
sI4667
I5241
sI4668
I5242
sI4669
I5243
sI4670
I5244
sI4671
I5245
sI4672
I5246
sI4673
I5247
sI4674
I5248
sI4675
I5249
sI4676
I5250
sI4677
I5251
sI4678
I5252
sI4679
I5253
sI4680
I5254
sI4681
I5255
sI4682
I5260
sI4683
I5261
sI4684
I5262
sI4685
I5263
sI4686
I5264
sI4687
I5265
sI4688
I5267
sI4689
I5269
sI4690
I5271
sI4691
I5273
sI4692
I5274
sI4693
I5275
sI4694
I5276
sI4695
I5277
sI4696
I5278
sI4697
I5280
sI4698
I5281
sI4699
I5282
sI4700
I5283
sI4701
I5284
sI4702
I5285
sI4703
I5286
sI4704
I5287
sI4705
I5288
sI4706
I5289
sI4707
I5290
sI4708
I5291
sI4709
I5294
sI4710
I5295
sI4711
I5296
sI4712
I5298
sI4713
I5299
sI4714
I5300
sI4715
I5301
sI4716
I5303
sI4717
I5305
sI4718
I5306
sI4719
I5308
sI4720
I5309
sI4721
I5310
sI4722
I5311
sI4723
I5312
sI4724
I5313
sI4725
I5314
sI4726
I5315
sI4727
I5316
sI4728
I5317
sI4729
I5320
sI4730
I5321
sI4731
I5322
sI4732
I5323
sI4733
I5324
sI4734
I5326
sI4735
I5327
sI4736
I5328
sI4737
I5329
sI4738
I5330
sI4739
I5332
sI4740
I5333
sI4741
I5334
sI4742
I5335
sI4743
I5336
sI4744
I5337
sI4745
I5339
sI4746
I5341
sI4747
I5342
sI4748
I5343
sI4749
I5344
sI4750
I5345
sI4751
I5346
sI4752
I5347
sI4753
I5348
sI4754
I5350
sI4755
I5351
sI4756
I5352
sI4757
I5353
sI4758
I5354
sI4759
I5355
sI4760
I5356
sI4761
I5357
sI4762
I5358
sI4763
I5360
sI4764
I5361
sI4765
I5362
sI4766
I5363
sI4767
I5364
sI4768
I5365
sI4769
I5366
sI4770
I5367
sI4771
I5368
sI4772
I5370
sI4773
I5371
sI4774
I5372
sI4775
I5373
sI4776
I5374
sI4777
I5375
sI4778
I5376
sI4779
I5377
sI4780
I5378
sI4781
I5380
sI4782
I5381
sI4783
I5382
sI4784
I5384
sI4785
I5385
sI4786
I5386
sI4787
I5387
sI4788
I5388
sI4789
I5390
sI4790
I5391
sI4791
I5392
sI4792
I5393
sI4793
I5395
sI4794
I5396
sI4795
I5397
sI4796
I5398
sI4797
I5399
sI4798
I5400
sI4799
I5401
sI4800
I5404
sI4801
I5405
sI4802
I5406
sI4803
I5410
sI4804
I5412
sI4805
I5413
sI4806
I5414
sI4807
I5415
sI4808
I5416
sI4809
I5417
sI4810
I5418
sI4811
I5419
sI4812
I5421
sI4813
I5422
sI4814
I5423
sI4815
I5424
sI4816
I5426
sI4817
I5427
sI4818
I5428
sI4819
I5429
sI4820
I5430
sI4821
I5431
sI4822
I5432
sI4823
I5434
sI4824
I5435
sI4825
I5436
sI4826
I5437
sI4827
I5438
sI4828
I5439
sI4829
I5440
sI4830
I5442
sI4831
I5445
sI4832
I5446
sI4833
I5447
sI4834
I5448
sI4835
I5449
sI4836
I5452
sI4837
I5454
sI4838
I5455
sI4839
I5456
sI4840
I5457
sI4841
I5459
sI4842
I5460
sI4843
I5461
sI4844
I5462
sI4845
I5463
sI4846
I5465
sI4847
I5466
sI4848
I5467
sI4849
I5468
sI4850
I5469
sI4851
I5470
sI4852
I5471
sI4853
I5472
sI4854
I5473
sI4855
I5474
sI4856
I5475
sI4857
I5476
sI4858
I5477
sI4859
I5478
sI4860
I5479
sI4861
I5480
sI4862
I5481
sI4863
I5482
sI4864
I5483
sI4865
I5484
sI4866
I5485
sI4867
I5486
sI4868
I5487
sI4869
I5488
sI4870
I5489
sI4871
I5490
sI4872
I5491
sI4873
I5494
sI4874
I5495
sI4875
I5496
sI4876
I5497
sI4877
I5499
sI4878
I5500
sI4879
I5501
sI4880
I5503
sI4881
I5504
sI4882
I5505
sI4883
I5506
sI4884
I5507
sI4885
I5508
sI4886
I5509
sI4887
I5510
sI4888
I5511
sI4889
I5512
sI4890
I5513
sI4891
I5514
sI4892
I5515
sI4893
I5516
sI4894
I5517
sI4895
I5518
sI4896
I5519
sI4897
I5520
sI4898
I5521
sI4899
I5522
sI4900
I5523
sI4901
I5524
sI4902
I5525
sI4903
I5526
sI4904
I5527
sI4905
I5528
sI4906
I5529
sI4907
I5530
sI4908
I5531
sI4909
I5532
sI4910
I5533
sI4911
I5534
sI4912
I5535
sI4913
I5536
sI4914
I5537
sI4915
I5539
sI4916
I5540
sI4917
I5541
sI4918
I5542
sI4919
I5543
sI4920
I5544
sI4921
I5545
sI4922
I5548
sI4923
I5549
sI4924
I5550
sI4925
I5551
sI4926
I5552
sI4927
I5553
sI4928
I5554
sI4929
I5555
sI4930
I5558
sI4931
I5559
sI4932
I5561
sI4933
I5562
sI4934
I5563
sI4935
I5564
sI4936
I5565
sI4937
I5566
sI4938
I5567
sI4939
I5568
sI4940
I5569
sI4941
I5570
sI4942
I5571
sI4943
I5572
sI4944
I5573
sI4945
I5576
sI4946
I5577
sI4947
I5578
sI4948
I5579
sI4949
I5580
sI4950
I5581
sI4951
I5582
sI4952
I5583
sI4953
I5584
sI4954
I5587
sI4955
I5588
sI4956
I5589
sI4957
I5590
sI4958
I5591
sI4959
I5592
sI4960
I5594
sI4961
I5595
sI4962
I5596
sI4963
I5598
sI4964
I5599
sI4965
I5600
sI4966
I5601
sI4967
I5602
sI4968
I5603
sI4969
I5604
sI4970
I5605
sI4971
I5606
sI4972
I5607
sI4973
I5608
sI4974
I5609
sI4975
I5610
sI4976
I5611
sI4977
I5612
sI4978
I5613
sI4979
I5614
sI4980
I5615
sI4981
I5616
sI4982
I5617
sI4983
I5620
sI4984
I5622
sI4985
I5623
sI4986
I5624
sI4987
I5625
sI4988
I5626
sI4989
I5627
sI4990
I5628
sI4991
I5629
sI4992
I5630
sI4993
I5631
sI4994
I5633
sI4995
I5635
sI4996
I5636
sI4997
I5637
sI4998
I5638
sI4999
I5639
sI5000
I5640
sI5001
I5643
sI5002
I5644
sI5003
I5645
sI5004
I5646
sI5005
I5647
sI5006
I5648
sI5007
I5649
sI5008
I5650
sI5009
I5651
sI5010
I5652
sI5011
I5653
sI5012
I5655
sI5013
I5656
sI5014
I5657
sI5015
I5658
sI5016
I5659
sI5017
I5660
sI5018
I5661
sI5019
I5662
sI5020
I5663
sI5021
I5664
sI5022
I5665
sI5023
I5666
sI5024
I5667
sI5025
I5668
sI5026
I5669
sI5027
I5670
sI5028
I5671
sI5029
I5673
sI5030
I5674
sI5031
I5675
sI5032
I5676
sI5033
I5678
sI5034
I5679
sI5035
I5680
sI5036
I5682
sI5037
I5683
sI5038
I5684
sI5039
I5685
sI5040
I5686
sI5041
I5687
sI5042
I5688
sI5043
I5689
sI5044
I5690
sI5045
I5691
sI5046
I5692
sI5047
I5693
sI5048
I5694
sI5049
I5695
sI5050
I5696
sI5051
I5697
sI5052
I5698
sI5053
I5702
sI5054
I5703
sI5055
I5704
sI5056
I5705
sI5057
I5706
sI5058
I5707
sI5059
I5708
sI5060
I5709
sI5061
I5710
sI5062
I5711
sI5063
I5712
sI5064
I5713
sI5065
I5714
sI5066
I5717
sI5067
I5718
sI5068
I5720
sI5069
I5721
sI5070
I5722
sI5071
I5726
sI5072
I5729
sI5073
I5730
sI5074
I5731
sI5075
I5732
sI5076
I5733
sI5077
I5735
sI5078
I5737
sI5079
I5738
sI5080
I5739
sI5081
I5740
sI5082
I5741
sI5083
I5743
sI5084
I5744
sI5085
I5745
sI5086
I5746
sI5087
I5747
sI5088
I5748
sI5089
I5749
sI5090
I5750
sI5091
I5751
sI5092
I5752
sI5093
I5753
sI5094
I5754
sI5095
I5755
sI5096
I5756
sI5097
I5757
sI5098
I5760
sI5099
I5761
sI5100
I5763
sI5101
I5764
sI5102
I5765
sI5103
I5766
sI5104
I5767
sI5105
I5768
sI5106
I5769
sI5107
I5770
sI5108
I5771
sI5109
I5772
sI5110
I5773
sI5111
I5774
sI5112
I5775
sI5113
I5776
sI5114
I5778
sI5115
I5780
sI5116
I5781
sI5117
I5782
sI5118
I5783
sI5119
I5784
sI5120
I5785
sI5121
I5786
sI5122
I5787
sI5123
I5788
sI5124
I5789
sI5125
I5790
sI5126
I5792
sI5127
I5793
sI5128
I5794
sI5129
I5796
sI5130
I5797
sI5131
I5798
sI5132
I5799
sI5133
I5800
sI5134
I5801
sI5135
I5802
sI5136
I5803
sI5137
I5804
sI5138
I5805
sI5139
I5806
sI5140
I5807
sI5141
I5808
sI5142
I5809
sI5143
I5810
sI5144
I5811
sI5145
I5812
sI5146
I5813
sI5147
I5814
sI5148
I5815
sI5149
I5816
sI5150
I5817
sI5151
I5818
sI5152
I5819
sI5153
I5820
sI5154
I5821
sI5155
I5822
sI5156
I5823
sI5157
I5824
sI5158
I5827
sI5159
I5828
sI5160
I5829
sI5161
I5830
sI5162
I5832
sI5163
I5833
sI5164
I5834
sI5165
I5835
sI5166
I5836
sI5167
I5837
sI5168
I5838
sI5169
I5839
sI5170
I5840
sI5171
I5841
sI5172
I5842
sI5173
I5844
sI5174
I5846
sI5175
I5848
sI5176
I5850
sI5177
I5852
sI5178
I5853
sI5179
I5854
sI5180
I5855
sI5181
I5856
sI5182
I5857
sI5183
I5859
sI5184
I5860
sI5185
I5861
sI5186
I5862
sI5187
I5863
sI5188
I5864
sI5189
I5866
sI5190
I5868
sI5191
I5871
sI5192
I5872
sI5193
I5873
sI5194
I5874
sI5195
I5875
sI5196
I5876
sI5197
I5877
sI5198
I5878
sI5199
I5880
sI5200
I5882
sI5201
I5883
sI5202
I5884
sI5203
I5885
sI5204
I5886
sI5205
I5887
sI5206
I5888
sI5207
I5889
sI5208
I5890
sI5209
I5891
sI5210
I5892
sI5211
I5895
sI5212
I5896
sI5213
I5897
sI5214
I5899
sI5215
I5902
sI5216
I5903
sI5217
I5907
sI5218
I5908
sI5219
I5909
sI5220
I5910
sI5221
I5911
sI5222
I5913
sI5223
I5914
sI5224
I5915
sI5225
I5916
sI5226
I5917
sI5227
I5919
sI5228
I5920
sI5229
I5921
sI5230
I5922
sI5231
I5923
sI5232
I5924
sI5233
I5925
sI5234
I5926
sI5235
I5927
sI5236
I5928
sI5237
I5930
sI5238
I5931
sI5239
I5932
sI5240
I5933
sI5241
I5934
sI5242
I5935
sI5243
I5936
sI5244
I5937
sI5245
I5938
sI5246
I5939
sI5247
I5940
sI5248
I5941
sI5249
I5942
sI5250
I5943
sI5251
I5944
sI5252
I5945
sI5253
I5946
sI5254
I5947
sI5255
I5949
sI5256
I5950
sI5257
I5952
sI5258
I5955
sI5259
I5956
sI5260
I5958
sI5261
I5959
sI5262
I5960
sI5263
I5961
sI5264
I5962
sI5265
I5963
sI5266
I5964
sI5267
I5965
sI5268
I5966
sI5269
I5967
sI5270
I5969
sI5271
I5970
sI5272
I5971
sI5273
I5972
sI5274
I5973
sI5275
I5977
sI5276
I5978
sI5277
I5980
sI5278
I5981
sI5279
I5982
sI5280
I5983
sI5281
I5984
sI5282
I5985
sI5283
I5986
sI5284
I5987
sI5285
I5988
sI5286
I5989
sI5287
I5990
sI5288
I5991
sI5289
I5992
sI5290
I5993
sI5291
I5994
sI5292
I5995
sI5293
I5997
sI5294
I5998
sI5295
I5999
sI5296
I6000
sI5297
I6001
sI5298
I6002
sI5299
I6003
sI5300
I6004
sI5301
I6005
sI5302
I6006
sI5303
I6007
sI5304
I6009
sI5305
I6010
sI5306
I6013
sI5307
I6014
sI5308
I6015
sI5309
I6016
sI5310
I6017
sI5311
I6018
sI5312
I6019
sI5313
I6020
sI5314
I6021
sI5315
I6022
sI5316
I6023
sI5317
I6024
sI5318
I6025
sI5319
I6026
sI5320
I6027
sI5321
I6028
sI5322
I6029
sI5323
I6030
sI5324
I6031
sI5325
I6032
sI5326
I6033
sI5327
I6034
sI5328
I6035
sI5329
I6036
sI5330
I6037
sI5331
I6038
sI5332
I6039
sI5333
I6041
sI5334
I6042
sI5335
I6043
sI5336
I6044
sI5337
I6045
sI5338
I6046
sI5339
I6047
sI5340
I6048
sI5341
I6049
sI5342
I6050
sI5343
I6051
sI5344
I6052
sI5345
I6053
sI5346
I6054
sI5347
I6055
sI5348
I6056
sI5349
I6057
sI5350
I6058
sI5351
I6059
sI5352
I6060
sI5353
I6061
sI5354
I6062
sI5355
I6063
sI5356
I6064
sI5357
I6066
sI5358
I6067
sI5359
I6068
sI5360
I6069
sI5361
I6070
sI5362
I6071
sI5363
I6072
sI5364
I6073
sI5365
I6074
sI5366
I6075
sI5367
I6077
sI5368
I6078
sI5369
I6079
sI5370
I6080
sI5371
I6081
sI5372
I6082
sI5373
I6083
sI5374
I6088
sI5375
I6089
sI5376
I6090
sI5377
I6091
sI5378
I6092
sI5379
I6093
sI5380
I6094
sI5381
I6096
sI5382
I6097
sI5383
I6098
sI5384
I6100
sI5385
I6101
sI5386
I6105
sI5387
I6106
sI5388
I6107
sI5389
I6108
sI5390
I6109
sI5391
I6110
sI5392
I6111
sI5393
I6112
sI5394
I6113
sI5395
I6114
sI5396
I6116
sI5397
I6118
sI5398
I6119
sI5399
I6120
sI5400
I6121
sI5401
I6123
sI5402
I6124
sI5403
I6126
sI5404
I6127
sI5405
I6128
sI5406
I6129
sI5407
I6130
sI5408
I6132
sI5409
I6133
sI5410
I6134
sI5411
I6135
sI5412
I6139
sI5413
I6141
sI5414
I6142
sI5415
I6143
sI5416
I6144
sI5417
I6145
sI5418
I6146
sI5419
I6147
sI5420
I6148
sI5421
I6149
sI5422
I6150
sI5423
I6151
sI5424
I6152
sI5425
I6153
sI5426
I6155
sI5427
I6156
sI5428
I6157
sI5429
I6158
sI5430
I6160
sI5431
I6161
sI5432
I6162
sI5433
I6164
sI5434
I6165
sI5435
I6166
sI5436
I6168
sI5437
I6169
sI5438
I6170
sI5439
I6174
sI5440
I6175
sI5441
I6176
sI5442
I6177
sI5443
I6178
sI5444
I6179
sI5445
I6180
sI5446
I6181
sI5447
I6182
sI5448
I6183
sI5449
I6184
sI5450
I6185
sI5451
I6186
sI5452
I6187
sI5453
I6188
sI5454
I6190
sI5455
I6191
sI5456
I6192
sI5457
I6193
sI5458
I6196
sI5459
I6197
sI5460
I6198
sI5461
I6199
sI5462
I6200
sI5463
I6201
sI5464
I6202
sI5465
I6203
sI5466
I6204
sI5467
I6205
sI5468
I6206
sI5469
I6207
sI5470
I6208
sI5471
I6212
sI5472
I6213
sI5473
I6214
sI5474
I6215
sI5475
I6216
sI5476
I6217
sI5477
I6218
sI5478
I6219
sI5479
I6220
sI5480
I6221
sI5481
I6222
sI5482
I6223
sI5483
I6224
sI5484
I6225
sI5485
I6226
sI5486
I6227
sI5487
I6228
sI5488
I6229
sI5489
I6230
sI5490
I6232
sI5491
I6235
sI5492
I6236
sI5493
I6239
sI5494
I6240
sI5495
I6241
sI5496
I6242
sI5497
I6243
sI5498
I6244
sI5499
I6245
sI5500
I6246
sI5501
I6247
sI5502
I6248
sI5503
I6251
sI5504
I6252
sI5505
I6253
sI5506
I6254
sI5507
I6255
sI5508
I6257
sI5509
I6258
sI5510
I6259
sI5511
I6261
sI5512
I6262
sI5513
I6263
sI5514
I6264
sI5515
I6265
sI5516
I6266
sI5517
I6267
sI5518
I6269
sI5519
I6270
sI5520
I6271
sI5521
I6272
sI5522
I6273
sI5523
I6274
sI5524
I6275
sI5525
I6276
sI5526
I6278
sI5527
I6279
sI5528
I6280
sI5529
I6281
sI5530
I6282
sI5531
I6286
sI5532
I6287
sI5533
I6288
sI5534
I6291
sI5535
I6292
sI5536
I6293
sI5537
I6294
sI5538
I6295
sI5539
I6296
sI5540
I6297
sI5541
I6298
sI5542
I6299
sI5543
I6301
sI5544
I6302
sI5545
I6304
sI5546
I6305
sI5547
I6306
sI5548
I6307
sI5549
I6311
sI5550
I6312
sI5551
I6313
sI5552
I6314
sI5553
I6315
sI5554
I6316
sI5555
I6317
sI5556
I6319
sI5557
I6320
sI5558
I6321
sI5559
I6323
sI5560
I6324
sI5561
I6325
sI5562
I6326
sI5563
I6327
sI5564
I6328
sI5565
I6330
sI5566
I6331
sI5567
I6332
sI5568
I6333
sI5569
I6334
sI5570
I6337
sI5571
I6339
sI5572
I6340
sI5573
I6344
sI5574
I6346
sI5575
I6347
sI5576
I6348
sI5577
I6349
sI5578
I6350
sI5579
I6351
sI5580
I6355
sI5581
I6356
sI5582
I6359
sI5583
I6360
sI5584
I6366
sI5585
I6367
sI5586
I6371
sI5587
I6374
sI5588
I6375
sI5589
I6376
sI5590
I6377
sI5591
I6378
sI5592
I6379
sI5593
I6380
sI5594
I6381
sI5595
I6383
sI5596
I6387
sI5597
I6388
sI5598
I6389
sI5599
I6391
sI5600
I6392
sI5601
I6393
sI5602
I6394
sI5603
I6395
sI5604
I6396
sI5605
I6397
sI5606
I6398
sI5607
I6399
sI5608
I6400
sI5609
I6406
sI5610
I6407
sI5611
I6408
sI5612
I6409
sI5613
I6410
sI5614
I6411
sI5615
I6412
sI5616
I6413
sI5617
I6414
sI5618
I6415
sI5619
I6416
sI5620
I6417
sI5621
I6421
sI5622
I6422
sI5623
I6423
sI5624
I6424
sI5625
I6426
sI5626
I6427
sI5627
I6428
sI5628
I6429
sI5629
I6430
sI5630
I6431
sI5631
I6432
sI5632
I6435
sI5633
I6436
sI5634
I6437
sI5635
I6439
sI5636
I6440
sI5637
I6441
sI5638
I6442
sI5639
I6443
sI5640
I6444
sI5641
I6445
sI5642
I6446
sI5643
I6447
sI5644
I6448
sI5645
I6450
sI5646
I6451
sI5647
I6452
sI5648
I6453
sI5649
I6454
sI5650
I6455
sI5651
I6456
sI5652
I6457
sI5653
I6458
sI5654
I6459
sI5655
I6460
sI5656
I6461
sI5657
I6462
sI5658
I6464
sI5659
I6466
sI5660
I6467
sI5661
I6468
sI5662
I6469
sI5663
I6470
sI5664
I6471
sI5665
I6472
sI5666
I6474
sI5667
I6475
sI5668
I6477
sI5669
I6478
sI5670
I6479
sI5671
I6480
sI5672
I6481
sI5673
I6483
sI5674
I6484
sI5675
I6485
sI5676
I6486
sI5677
I6487
sI5678
I6488
sI5679
I6489
sI5680
I6490
sI5681
I6491
sI5682
I6492
sI5683
I6493
sI5684
I6494
sI5685
I6495
sI5686
I6496
sI5687
I6497
sI5688
I6498
sI5689
I6500
sI5690
I6501
sI5691
I6502
sI5692
I6503
sI5693
I6504
sI5694
I6505
sI5695
I6506
sI5696
I6507
sI5697
I6508
sI5698
I6509
sI5699
I6510
sI5700
I6511
sI5701
I6513
sI5702
I6514
sI5703
I6515
sI5704
I6516
sI5705
I6517
sI5706
I6518
sI5707
I6519
sI5708
I6520
sI5709
I6521
sI5710
I6522
sI5711
I6523
sI5712
I6524
sI5713
I6525
sI5714
I6526
sI5715
I6527
sI5716
I6528
sI5717
I6529
sI5718
I6530
sI5719
I6532
sI5720
I6533
sI5721
I6534
sI5722
I6535
sI5723
I6536
sI5724
I6537
sI5725
I6538
sI5726
I6539
sI5727
I6541
sI5728
I6542
sI5729
I6543
sI5730
I6544
sI5731
I6545
sI5732
I6546
sI5733
I6547
sI5734
I6548
sI5735
I6550
sI5736
I6551
sI5737
I6552
sI5738
I6553
sI5739
I6554
sI5740
I6555
sI5741
I6560
sI5742
I6561
sI5743
I6563
sI5744
I6565
sI5745
I6566
sI5746
I6567
sI5747
I6568
sI5748
I6570
sI5749
I6571
sI5750
I6572
sI5751
I6573
sI5752
I6574
sI5753
I6575
sI5754
I6576
sI5755
I6577
sI5756
I6578
sI5757
I6579
sI5758
I6580
sI5759
I6581
sI5760
I6582
sI5761
I6583
sI5762
I6584
sI5763
I6585
sI5764
I6586
sI5765
I6587
sI5766
I6588
sI5767
I6589
sI5768
I6590
sI5769
I6592
sI5770
I6594
sI5771
I6595
sI5772
I6596
sI5773
I6598
sI5774
I6599
sI5775
I6600
sI5776
I6601
sI5777
I6602
sI5778
I6603
sI5779
I6604
sI5780
I6605
sI5781
I6606
sI5782
I6607
sI5783
I6608
sI5784
I6609
sI5785
I6611
sI5786
I6612
sI5787
I6613
sI5788
I6614
sI5789
I6615
sI5790
I6616
sI5791
I6617
sI5792
I6618
sI5793
I6619
sI5794
I6620
sI5795
I6621
sI5796
I6622
sI5797
I6623
sI5798
I6624
sI5799
I6625
sI5800
I6626
sI5801
I6627
sI5802
I6628
sI5803
I6630
sI5804
I6632
sI5805
I6633
sI5806
I6634
sI5807
I6635
sI5808
I6636
sI5809
I6638
sI5810
I6639
sI5811
I6641
sI5812
I6643
sI5813
I6644
sI5814
I6645
sI5815
I6646
sI5816
I6647
sI5817
I6648
sI5818
I6649
sI5819
I6650
sI5820
I6651
sI5821
I6652
sI5822
I6653
sI5823
I6654
sI5824
I6655
sI5825
I6656
sI5826
I6657
sI5827
I6658
sI5828
I6660
sI5829
I6661
sI5830
I6663
sI5831
I6665
sI5832
I6666
sI5833
I6668
sI5834
I6670
sI5835
I6671
sI5836
I6672
sI5837
I6673
sI5838
I6674
sI5839
I6675
sI5840
I6676
sI5841
I6677
sI5842
I6678
sI5843
I6679
sI5844
I6680
sI5845
I6681
sI5846
I6682
sI5847
I6683
sI5848
I6684
sI5849
I6685
sI5850
I6686
sI5851
I6687
sI5852
I6688
sI5853
I6689
sI5854
I6690
sI5855
I6691
sI5856
I6692
sI5857
I6695
sI5858
I6696
sI5859
I6697
sI5860
I6698
sI5861
I6699
sI5862
I6700
sI5863
I6701
sI5864
I6702
sI5865
I6703
sI5866
I6705
sI5867
I6706
sI5868
I6707
sI5869
I6709
sI5870
I6710
sI5871
I6711
sI5872
I6712
sI5873
I6713
sI5874
I6714
sI5875
I6715
sI5876
I6717
sI5877
I6718
sI5878
I6719
sI5879
I6720
sI5880
I6721
sI5881
I6723
sI5882
I6724
sI5883
I6725
sI5884
I6726
sI5885
I6727
sI5886
I6728
sI5887
I6729
sI5888
I6730
sI5889
I6731
sI5890
I6732
sI5891
I6734
sI5892
I6735
sI5893
I6736
sI5894
I6737
sI5895
I6738
sI5896
I6739
sI5897
I6744
sI5898
I6745
sI5899
I6746
sI5900
I6747
sI5901
I6749
sI5902
I6751
sI5903
I6752
sI5904
I6753
sI5905
I6755
sI5906
I6756
sI5907
I6757
sI5908
I6758
sI5909
I6759
sI5910
I6760
sI5911
I6761
sI5912
I6762
sI5913
I6764
sI5914
I6765
sI5915
I6766
sI5916
I6767
sI5917
I6768
sI5918
I6769
sI5919
I6770
sI5920
I6771
sI5921
I6772
sI5922
I6773
sI5923
I6774
sI5924
I6775
sI5925
I6776
sI5926
I6777
sI5927
I6778
sI5928
I6779
sI5929
I6780
sI5930
I6781
sI5931
I6782
sI5932
I6783
sI5933
I6784
sI5934
I6787
sI5935
I6788
sI5936
I6789
sI5937
I6790
sI5938
I6791
sI5939
I6793
sI5940
I6794
sI5941
I6795
sI5942
I6797
sI5943
I6798
sI5944
I6800
sI5945
I6801
sI5946
I6802
sI5947
I6803
sI5948
I6804
sI5949
I6805
sI5950
I6806
sI5951
I6807
sI5952
I6808
sI5953
I6809
sI5954
I6810
sI5955
I6811
sI5956
I6812
sI5957
I6813
sI5958
I6815
sI5959
I6816
sI5960
I6818
sI5961
I6819
sI5962
I6821
sI5963
I6822
sI5964
I6824
sI5965
I6826
sI5966
I6828
sI5967
I6829
sI5968
I6832
sI5969
I6833
sI5970
I6834
sI5971
I6835
sI5972
I6836
sI5973
I6837
sI5974
I6840
sI5975
I6841
sI5976
I6842
sI5977
I6843
sI5978
I6844
sI5979
I6845
sI5980
I6846
sI5981
I6847
sI5982
I6848
sI5983
I6850
sI5984
I6852
sI5985
I6854
sI5986
I6855
sI5987
I6856
sI5988
I6858
sI5989
I6859
sI5990
I6860
sI5991
I6861
sI5992
I6862
sI5993
I6863
sI5994
I6864
sI5995
I6865
sI5996
I6866
sI5997
I6867
sI5998
I6869
sI5999
I6870
sI6000
I6871
sI6001
I6873
sI6002
I6875
sI6003
I6876
sI6004
I6877
sI6005
I6878
sI6006
I6880
sI6007
I6881
sI6008
I6883
sI6009
I6884
sI6010
I6885
sI6011
I6886
sI6012
I6889
sI6013
I6890
sI6014
I6892
sI6015
I6895
sI6016
I6896
sI6017
I6897
sI6018
I6899
sI6019
I6900
sI6020
I6901
sI6021
I6902
sI6022
I6903
sI6023
I6904
sI6024
I6905
sI6025
I6906
sI6026
I6907
sI6027
I6908
sI6028
I6909
sI6029
I6910
sI6030
I6911
sI6031
I6912
sI6032
I6913
sI6033
I6914
sI6034
I6915
sI6035
I6916
sI6036
I6917
sI6037
I6918
sI6038
I6920
sI6039
I6921
sI6040
I6922
sI6041
I6923
sI6042
I6924
sI6043
I6926
sI6044
I6927
sI6045
I6928
sI6046
I6929
sI6047
I6930
sI6048
I6933
sI6049
I6934
sI6050
I6935
sI6051
I6936
sI6052
I6938
sI6053
I6940
sI6054
I6941
sI6055
I6942
sI6056
I6943
sI6057
I6945
sI6058
I6946
sI6059
I6947
sI6060
I6948
sI6061
I6949
sI6062
I6950
sI6063
I6951
sI6064
I6953
sI6065
I6954
sI6066
I6955
sI6067
I6958
sI6068
I6959
sI6069
I6960
sI6070
I6961
sI6071
I6962
sI6072
I6963
sI6073
I6965
sI6074
I6967
sI6075
I6968
sI6076
I6969
sI6077
I6971
sI6078
I6972
sI6079
I6974
sI6080
I6975
sI6081
I6976
sI6082
I6978
sI6083
I6979
sI6084
I6980
sI6085
I6981
sI6086
I6982
sI6087
I6983
sI6088
I6984
sI6089
I6985
sI6090
I6986
sI6091
I6987
sI6092
I6990
sI6093
I6991
sI6094
I6993
sI6095
I6994
sI6096
I6995
sI6097
I6996
sI6098
I6997
sI6099
I6998
sI6100
I6999
sI6101
I7000
sI6102
I7001
sI6103
I7002
sI6104
I7003
sI6105
I7004
sI6106
I7005
sI6107
I7006
sI6108
I7007
sI6109
I7008
sI6110
I7009
sI6111
I7010
sI6112
I7011
sI6113
I7012
sI6114
I7013
sI6115
I7014
sI6116
I7015
sI6117
I7016
sI6118
I7017
sI6119
I7018
sI6120
I7019
sI6121
I7020
sI6122
I7021
sI6123
I7022
sI6124
I7023
sI6125
I7024
sI6126
I7025
sI6127
I7026
sI6128
I7027
sI6129
I7028
sI6130
I7029
sI6131
I7030
sI6132
I7031
sI6133
I7032
sI6134
I7033
sI6135
I7034
sI6136
I7035
sI6137
I7036
sI6138
I7037
sI6139
I7038
sI6140
I7040
sI6141
I7041
sI6142
I7042
sI6143
I7043
sI6144
I7044
sI6145
I7045
sI6146
I7046
sI6147
I7047
sI6148
I7048
sI6149
I7049
sI6150
I7050
sI6151
I7051
sI6152
I7052
sI6153
I7053
sI6154
I7054
sI6155
I7055
sI6156
I7056
sI6157
I7057
sI6158
I7059
sI6159
I7060
sI6160
I7061
sI6161
I7062
sI6162
I7063
sI6163
I7064
sI6164
I7065
sI6165
I7070
sI6166
I7071
sI6167
I7072
sI6168
I7073
sI6169
I7074
sI6170
I7079
sI6171
I7080
sI6172
I7082
sI6173
I7084
sI6174
I7085
sI6175
I7086
sI6176
I7087
sI6177
I7088
sI6178
I7089
sI6179
I7090
sI6180
I7092
sI6181
I7094
sI6182
I7095
sI6183
I7096
sI6184
I7098
sI6185
I7099
sI6186
I7100
sI6187
I7101
sI6188
I7103
sI6189
I7104
sI6190
I7106
sI6191
I7107
sI6192
I7108
sI6193
I7109
sI6194
I7110
sI6195
I7111
sI6196
I7112
sI6197
I7113
sI6198
I7114
sI6199
I7115
sI6200
I7116
sI6201
I7117
sI6202
I7118
sI6203
I7119
sI6204
I7120
sI6205
I7121
sI6206
I7122
sI6207
I7123
sI6208
I7124
sI6209
I7125
sI6210
I7126
sI6211
I7127
sI6212
I7128
sI6213
I7129
sI6214
I7130
sI6215
I7131
sI6216
I7132
sI6217
I7133
sI6218
I7134
sI6219
I7135
sI6220
I7136
sI6221
I7137
sI6222
I7138
sI6223
I7139
sI6224
I7140
sI6225
I7142
sI6226
I7143
sI6227
I7144
sI6228
I7145
sI6229
I7146
sI6230
I7149
sI6231
I7150
sI6232
I7151
sI6233
I7153
sI6234
I7154
sI6235
I7155
sI6236
I7156
sI6237
I7157
sI6238
I7158
sI6239
I7159
sI6240
I7160
sI6241
I7161
sI6242
I7162
sI6243
I7163
sI6244
I7164
sI6245
I7165
sI6246
I7166
sI6247
I7167
sI6248
I7168
sI6249
I7170
sI6250
I7171
sI6251
I7172
sI6252
I7173
sI6253
I7174
sI6254
I7175
sI6255
I7176
sI6256
I7177
sI6257
I7178
sI6258
I7179
sI6259
I7180
sI6260
I7181
sI6261
I7183
sI6262
I7184
sI6263
I7185
sI6264
I7186
sI6265
I7187
sI6266
I7188
sI6267
I7189
sI6268
I7190
sI6269
I7191
sI6270
I7192
sI6271
I7193
sI6272
I7194
sI6273
I7195
sI6274
I7197
sI6275
I7198
sI6276
I7199
sI6277
I7201
sI6278
I7203
sI6279
I7204
sI6280
I7205
sI6281
I7206
sI6282
I7210
sI6283
I7211
sI6284
I7212
sI6285
I7214
sI6286
I7215
sI6287
I7217
sI6288
I7218
sI6289
I7219
sI6290
I7220
sI6291
I7221
sI6292
I7222
sI6293
I7223
sI6294
I7225
sI6295
I7226
sI6296
I7227
sI6297
I7228
sI6298
I7229
sI6299
I7230
sI6300
I7231
sI6301
I7232
sI6302
I7233
sI6303
I7234
sI6304
I7235
sI6305
I7236
sI6306
I7237
sI6307
I7238
sI6308
I7239
sI6309
I7240
sI6310
I7241
sI6311
I7243
sI6312
I7245
sI6313
I7246
sI6314
I7250
sI6315
I7251
sI6316
I7252
sI6317
I7253
sI6318
I7254
sI6319
I7255
sI6320
I7257
sI6321
I7260
sI6322
I7262
sI6323
I7265
sI6324
I7266
sI6325
I7267
sI6326
I7268
sI6327
I7269
sI6328
I7270
sI6329
I7271
sI6330
I7273
sI6331
I7276
sI6332
I7277
sI6333
I7278
sI6334
I7279
sI6335
I7280
sI6336
I7281
sI6337
I7282
sI6338
I7283
sI6339
I7284
sI6340
I7285
sI6341
I7286
sI6342
I7287
sI6343
I7289
sI6344
I7290
sI6345
I7291
sI6346
I7292
sI6347
I7293
sI6348
I7294
sI6349
I7295
sI6350
I7296
sI6351
I7297
sI6352
I7298
sI6353
I7299
sI6354
I7300
sI6355
I7301
sI6356
I7302
sI6357
I7304
sI6358
I7305
sI6359
I7306
sI6360
I7309
sI6361
I7310
sI6362
I7315
sI6363
I7316
sI6364
I7317
sI6365
I7318
sI6366
I7319
sI6367
I7320
sI6368
I7321
sI6369
I7323
sI6370
I7326
sI6371
I7327
sI6372
I7329
sI6373
I7330
sI6374
I7332
sI6375
I7333
sI6376
I7335
sI6377
I7336
sI6378
I7337
sI6379
I7341
sI6380
I7342
sI6381
I7343
sI6382
I7344
sI6383
I7345
sI6384
I7347
sI6385
I7348
sI6386
I7349
sI6387
I7350
sI6388
I7351
sI6389
I7352
sI6390
I7353
sI6391
I7354
sI6392
I7355
sI6393
I7357
sI6394
I7359
sI6395
I7360
sI6396
I7362
sI6397
I7363
sI6398
I7365
sI6399
I7371
sI6400
I7372
sI6401
I7373
sI6402
I7374
sI6403
I7376
sI6404
I7377
sI6405
I7378
sI6406
I7379
sI6407
I7380
sI6408
I7381
sI6409
I7382
sI6410
I7383
sI6411
I7386
sI6412
I7387
sI6413
I7389
sI6414
I7390
sI6415
I7391
sI6416
I7392
sI6417
I7393
sI6418
I7394
sI6419
I7397
sI6420
I7400
sI6421
I7401
sI6422
I7402
sI6423
I7403
sI6424
I7404
sI6425
I7405
sI6426
I7407
sI6427
I7409
sI6428
I7413
sI6429
I7414
sI6430
I7415
sI6431
I7416
sI6432
I7417
sI6433
I7418
sI6434
I7419
sI6435
I7420
sI6436
I7421
sI6437
I7422
sI6438
I7423
sI6439
I7424
sI6440
I7425
sI6441
I7426
sI6442
I7427
sI6443
I7428
sI6444
I7429
sI6445
I7430
sI6446
I7431
sI6447
I7434
sI6448
I7436
sI6449
I7439
sI6450
I7440
sI6451
I7441
sI6452
I7442
sI6453
I7443
sI6454
I7444
sI6455
I7445
sI6456
I7446
sI6457
I7447
sI6458
I7448
sI6459
I7449
sI6460
I7450
sI6461
I7451
sI6462
I7452
sI6463
I7453
sI6464
I7454
sI6465
I7455
sI6466
I7456
sI6467
I7457
sI6468
I7458
sI6469
I7459
sI6470
I7461
sI6471
I7462
sI6472
I7465
sI6473
I7466
sI6474
I7467
sI6475
I7468
sI6476
I7469
sI6477
I7470
sI6478
I7471
sI6479
I7472
sI6480
I7473
sI6481
I7474
sI6482
I7476
sI6483
I7477
sI6484
I7478
sI6485
I7480
sI6486
I7481
sI6487
I7482
sI6488
I7483
sI6489
I7484
sI6490
I7485
sI6491
I7486
sI6492
I7487
sI6493
I7490
sI6494
I7491
sI6495
I7492
sI6496
I7493
sI6497
I7494
sI6498
I7495
sI6499
I7497
sI6500
I7498
sI6501
I7501
sI6502
I7502
sI6503
I7503
sI6504
I7505
sI6505
I7506
sI6506
I7508
sI6507
I7509
sI6508
I7510
sI6509
I7511
sI6510
I7512
sI6511
I7513
sI6512
I7514
sI6513
I7515
sI6514
I7517
sI6515
I7518
sI6516
I7520
sI6517
I7522
sI6518
I7523
sI6519
I7524
sI6520
I7525
sI6521
I7527
sI6522
I7528
sI6523
I7529
sI6524
I7531
sI6525
I7533
sI6526
I7534
sI6527
I7535
sI6528
I7536
sI6529
I7537
sI6530
I7538
sI6531
I7540
sI6532
I7544
sI6533
I7545
sI6534
I7546
sI6535
I7549
sI6536
I7550
sI6537
I7553
sI6538
I7554
sI6539
I7557
sI6540
I7561
sI6541
I7563
sI6542
I7564
sI6543
I7565
sI6544
I7567
sI6545
I7569
sI6546
I7570
sI6547
I7571
sI6548
I7572
sI6549
I7574
sI6550
I7576
sI6551
I7577
sI6552
I7578
sI6553
I7579
sI6554
I7580
sI6555
I7581
sI6556
I7583
sI6557
I7585
sI6558
I7586
sI6559
I7587
sI6560
I7588
sI6561
I7590
sI6562
I7593
sI6563
I7594
sI6564
I7595
sI6565
I7597
sI6566
I7598
sI6567
I7599
sI6568
I7600
sI6569
I7601
sI6570
I7602
sI6571
I7604
sI6572
I7605
sI6573
I7608
sI6574
I7609
sI6575
I7610
sI6576
I7611
sI6577
I7613
sI6578
I7614
sI6579
I7615
sI6580
I7616
sI6581
I7617
sI6582
I7618
sI6583
I7619
sI6584
I7620
sI6585
I7623
sI6586
I7624
sI6587
I7625
sI6588
I7626
sI6589
I7629
sI6590
I7630
sI6591
I7632
sI6592
I7634
sI6593
I7636
sI6594
I7637
sI6595
I7638
sI6596
I7639
sI6597
I7642
sI6598
I7644
sI6599
I7645
sI6600
I7646
sI6601
I7647
sI6602
I7648
sI6603
I7649
sI6604
I7650
sI6605
I7651
sI6606
I7652
sI6607
I7653
sI6608
I7658
sI6609
I7659
sI6610
I7660
sI6611
I7661
sI6612
I7662
sI6613
I7663
sI6614
I7664
sI6615
I7665
sI6616
I7666
sI6617
I7668
sI6618
I7669
sI6619
I7670
sI6620
I7672
sI6621
I7673
sI6622
I7675
sI6623
I7676
sI6624
I7677
sI6625
I7678
sI6626
I7679
sI6627
I7682
sI6628
I7683
sI6629
I7684
sI6630
I7685
sI6631
I7686
sI6632
I7687
sI6633
I7688
sI6634
I7690
sI6635
I7691
sI6636
I7694
sI6637
I7695
sI6638
I7696
sI6639
I7697
sI6640
I7698
sI6641
I7699
sI6642
I7701
sI6643
I7703
sI6644
I7704
sI6645
I7705
sI6646
I7706
sI6647
I7707
sI6648
I7708
sI6649
I7715
sI6650
I7716
sI6651
I7717
sI6652
I7719
sI6653
I7720
sI6654
I7721
sI6655
I7724
sI6656
I7726
sI6657
I7727
sI6658
I7728
sI6659
I7729
sI6660
I7730
sI6661
I7732
sI6662
I7733
sI6663
I7734
sI6664
I7735
sI6665
I7736
sI6666
I7737
sI6667
I7738
sI6668
I7740
sI6669
I7741
sI6670
I7742
sI6671
I7743
sI6672
I7744
sI6673
I7745
sI6674
I7747
sI6675
I7750
sI6676
I7751
sI6677
I7752
sI6678
I7753
sI6679
I7754
sI6680
I7755
sI6681
I7756
sI6682
I7757
sI6683
I7758
sI6684
I7759
sI6685
I7760
sI6686
I7761
sI6687
I7762
sI6688
I7763
sI6689
I7765
sI6690
I7766
sI6691
I7767
sI6692
I7768
sI6693
I7769
sI6694
I7770
sI6695
I7771
sI6696
I7772
sI6697
I7773
sI6698
I7774
sI6699
I7775
sI6700
I7777
sI6701
I7778
sI6702
I7779
sI6703
I7780
sI6704
I7781
sI6705
I7782
sI6706
I7783
sI6707
I7788
sI6708
I7789
sI6709
I7790
sI6710
I7791
sI6711
I7792
sI6712
I7795
sI6713
I7796
sI6714
I7797
sI6715
I7799
sI6716
I7800
sI6717
I7801
sI6718
I7802
sI6719
I7803
sI6720
I7804
sI6721
I7805
sI6722
I7806
sI6723
I7808
sI6724
I7809
sI6725
I7810
sI6726
I7812
sI6727
I7813
sI6728
I7814
sI6729
I7815
sI6730
I7818
sI6731
I7819
sI6732
I7821
sI6733
I7822
sI6734
I7826
sI6735
I7827
sI6736
I7828
sI6737
I7829
sI6738
I7830
sI6739
I7831
sI6740
I7832
sI6741
I7833
sI6742
I7834
sI6743
I7835
sI6744
I7836
sI6745
I7837
sI6746
I7839
sI6747
I7840
sI6748
I7841
sI6749
I7842
sI6750
I7843
sI6751
I7844
sI6752
I7845
sI6753
I7848
sI6754
I7849
sI6755
I7850
sI6756
I7851
sI6757
I7852
sI6758
I7853
sI6759
I7854
sI6760
I7855
sI6761
I7856
sI6762
I7857
sI6763
I7860
sI6764
I7861
sI6765
I7862
sI6766
I7863
sI6767
I7864
sI6768
I7865
sI6769
I7866
sI6770
I7867
sI6771
I7868
sI6772
I7869
sI6773
I7870
sI6774
I7871
sI6775
I7873
sI6776
I7874
sI6777
I7875
sI6778
I7877
sI6779
I7878
sI6780
I7879
sI6781
I7881
sI6782
I7882
sI6783
I7883
sI6784
I7884
sI6785
I7885
sI6786
I7886
sI6787
I7887
sI6788
I7888
sI6789
I7889
sI6790
I7890
sI6791
I7891
sI6792
I7892
sI6793
I7893
sI6794
I7894
sI6795
I7899
sI6796
I7900
sI6797
I7901
sI6798
I7902
sI6799
I7903
sI6800
I7904
sI6801
I7905
sI6802
I7906
sI6803
I7907
sI6804
I7908
sI6805
I7909
sI6806
I7910
sI6807
I7911
sI6808
I7912
sI6809
I7913
sI6810
I7914
sI6811
I7915
sI6812
I7916
sI6813
I7919
sI6814
I7920
sI6815
I7921
sI6816
I7922
sI6817
I7923
sI6818
I7924
sI6819
I7925
sI6820
I7927
sI6821
I7928
sI6822
I7929
sI6823
I7930
sI6824
I7931
sI6825
I7932
sI6826
I7933
sI6827
I7934
sI6828
I7935
sI6829
I7937
sI6830
I7938
sI6831
I7939
sI6832
I7940
sI6833
I7941
sI6834
I7942
sI6835
I7944
sI6836
I7945
sI6837
I7946
sI6838
I7948
sI6839
I7949
sI6840
I7950
sI6841
I7952
sI6842
I7953
sI6843
I7954
sI6844
I7955
sI6845
I7956
sI6846
I7957
sI6847
I7959
sI6848
I7960
sI6849
I7961
sI6850
I7964
sI6851
I7965
sI6852
I7966
sI6853
I7967
sI6854
I7968
sI6855
I7969
sI6856
I7970
sI6857
I7972
sI6858
I7973
sI6859
I7974
sI6860
I7975
sI6861
I7976
sI6862
I7978
sI6863
I7979
sI6864
I7980
sI6865
I7981
sI6866
I7982
sI6867
I7985
sI6868
I7986
sI6869
I7991
sI6870
I7992
sI6871
I7993
sI6872
I7994
sI6873
I7995
sI6874
I7996
sI6875
I7998
sI6876
I7999
sI6877
I8000
sI6878
I8001
sI6879
I8002
sI6880
I8005
sI6881
I8006
sI6882
I8007
sI6883
I8009
sI6884
I8010
sI6885
I8011
sI6886
I8012
sI6887
I8013
sI6888
I8014
sI6889
I8015
sI6890
I8019
sI6891
I8020
sI6892
I8021
sI6893
I8023
sI6894
I8024
sI6895
I8025
sI6896
I8027
sI6897
I8028
sI6898
I8033
sI6899
I8035
sI6900
I8036
sI6901
I8037
sI6902
I8038
sI6903
I8040
sI6904
I8041
sI6905
I8042
sI6906
I8043
sI6907
I8044
sI6908
I8045
sI6909
I8046
sI6910
I8047
sI6911
I8048
sI6912
I8049
sI6913
I8050
sI6914
I8051
sI6915
I8052
sI6916
I8053
sI6917
I8054
sI6918
I8055
sI6919
I8056
sI6920
I8057
sI6921
I8058
sI6922
I8060
sI6923
I8061
sI6924
I8062
sI6925
I8063
sI6926
I8064
sI6927
I8065
sI6928
I8066
sI6929
I8068
sI6930
I8069
sI6931
I8070
sI6932
I8071
sI6933
I8072
sI6934
I8073
sI6935
I8074
sI6936
I8075
sI6937
I8076
sI6938
I8077
sI6939
I8079
sI6940
I8080
sI6941
I8081
sI6942
I8083
sI6943
I8084
sI6944
I8085
sI6945
I8086
sI6946
I8087
sI6947
I8088
sI6948
I8089
sI6949
I8090
sI6950
I8091
sI6951
I8092
sI6952
I8093
sI6953
I8094
sI6954
I8095
sI6955
I8096
sI6956
I8097
sI6957
I8098
sI6958
I8099
sI6959
I8100
sI6960
I8101
sI6961
I8102
sI6962
I8103
sI6963
I8104
sI6964
I8105
sI6965
I8106
sI6966
I8107
sI6967
I8108
sI6968
I8109
sI6969
I8110
sI6970
I8111
sI6971
I8112
sI6972
I8114
sI6973
I8115
sI6974
I8118
sI6975
I8119
sI6976
I8120
sI6977
I8121
sI6978
I8122
sI6979
I8124
sI6980
I8126
sI6981
I8128
sI6982
I8130
sI6983
I8131
sI6984
I8132
sI6985
I8133
sI6986
I8134
sI6987
I8135
sI6988
I8136
sI6989
I8137
sI6990
I8138
sI6991
I8139
sI6992
I8140
sI6993
I8141
sI6994
I8142
sI6995
I8144
sI6996
I8145
sI6997
I8146
sI6998
I8147
sI6999
I8148
sI7000
I8149
sI7001
I8150
sI7002
I8152
sI7003
I8153
sI7004
I8155
sI7005
I8156
sI7006
I8157
sI7007
I8158
sI7008
I8159
sI7009
I8161
sI7010
I8162
sI7011
I8163
sI7012
I8165
sI7013
I8166
sI7014
I8167
sI7015
I8168
sI7016
I8169
sI7017
I8170
sI7018
I8171
sI7019
I8172
sI7020
I8173
sI7021
I8174
sI7022
I8175
sI7023
I8177
sI7024
I8178
sI7025
I8179
sI7026
I8180
sI7027
I8181
sI7028
I8182
sI7029
I8183
sI7030
I8184
sI7031
I8186
sI7032
I8187
sI7033
I8189
sI7034
I8190
sI7035
I8192
sI7036
I8193
sI7037
I8194
sI7038
I8195
sI7039
I8196
sI7040
I8197
sI7041
I8198
sI7042
I8199
sI7043
I8202
sI7044
I8203
sI7045
I8204
sI7046
I8205
sI7047
I8206
sI7048
I8209
sI7049
I8211
sI7050
I8212
sI7051
I8213
sI7052
I8214
sI7053
I8215
sI7054
I8216
sI7055
I8219
sI7056
I8221
sI7057
I8222
sI7058
I8224
sI7059
I8225
sI7060
I8226
sI7061
I8227
sI7062
I8229
sI7063
I8231
sI7064
I8232
sI7065
I8233
sI7066
I8235
sI7067
I8236
sI7068
I8237
sI7069
I8238
sI7070
I8241
sI7071
I8242
sI7072
I8243
sI7073
I8244
sI7074
I8245
sI7075
I8246
sI7076
I8248
sI7077
I8249
sI7078
I8251
sI7079
I8252
sI7080
I8253
sI7081
I8254
sI7082
I8255
sI7083
I8256
sI7084
I8260
sI7085
I8261
sI7086
I8262
sI7087
I8263
sI7088
I8264
sI7089
I8265
sI7090
I8266
sI7091
I8270
sI7092
I8271
sI7093
I8272
sI7094
I8273
sI7095
I8274
sI7096
I8275
sI7097
I8276
sI7098
I8277
sI7099
I8282
sI7100
I8283
sI7101
I8284
sI7102
I8285
sI7103
I8286
sI7104
I8287
sI7105
I8288
sI7106
I8289
sI7107
I8290
sI7108
I8291
sI7109
I8292
sI7110
I8293
sI7111
I8294
sI7112
I8295
sI7113
I8296
sI7114
I8297
s.